
program.bin:     ファイル形式 elf32-bigmips


セクション .text の逆アセンブル:

00000000 <__start__>:
       0:	3c1d0000 	lui	sp,0x0
       4:	37bdff00 	ori	sp,sp,0xff00
       8:	241c0000 	li	gp,0
       c:	3c1a0200 	lui	k0,0x200
      10:	375a0101 	ori	k0,k0,0x101
      14:	409a6000 	mtc0	k0,c0_sr
      18:	00000000 	nop
      1c:	00000000 	nop

00000020 <__reset__>:
      20:	27bdfff0 	addiu	sp,sp,-16
      24:	afbe000c 	sw	s8,12(sp)
      28:	03a0f025 	move	s8,sp
      2c:	3c020000 	lui	v0,0x0
      30:	244238bc 	addiu	v0,v0,14524
      34:	afc20000 	sw	v0,0(s8)
      38:	3c020000 	lui	v0,0x0
      3c:	24422000 	addiu	v0,v0,8192
      40:	1000000c 	b	74 <__reset__+0x54>
      44:	afc20004 	sw	v0,4(s8)
      48:	8fc30000 	lw	v1,0(s8)
      4c:	00000000 	nop
      50:	24620004 	addiu	v0,v1,4
      54:	afc20000 	sw	v0,0(s8)
      58:	8fc20004 	lw	v0,4(s8)
      5c:	00000000 	nop
      60:	24440004 	addiu	a0,v0,4
      64:	afc40004 	sw	a0,4(s8)
      68:	8c630000 	lw	v1,0(v1)
      6c:	00000000 	nop
      70:	ac430000 	sw	v1,0(v0)
      74:	8fc30004 	lw	v1,4(s8)
      78:	3c020000 	lui	v0,0x0
      7c:	24422000 	addiu	v0,v0,8192
      80:	0062102b 	sltu	v0,v1,v0
      84:	1440fff0 	bnez	v0,48 <__reset__+0x28>
      88:	00000000 	nop
      8c:	3c020000 	lui	v0,0x0
      90:	24422000 	addiu	v0,v0,8192
      94:	10000008 	b	b8 <__reset__+0x98>
      98:	afc20004 	sw	v0,4(s8)
      9c:	8fc20004 	lw	v0,4(s8)
      a0:	00000000 	nop
      a4:	ac400000 	sw	zero,0(v0)
      a8:	8fc20004 	lw	v0,4(s8)
      ac:	00000000 	nop
      b0:	24420004 	addiu	v0,v0,4
      b4:	afc20004 	sw	v0,4(s8)
      b8:	8fc30004 	lw	v1,4(s8)
      bc:	3c020000 	lui	v0,0x0
      c0:	244220bc 	addiu	v0,v0,8380
      c4:	0062102b 	sltu	v0,v1,v0
      c8:	1440fff4 	bnez	v0,9c <__reset__+0x7c>
      cc:	00000000 	nop
      d0:	080001c4 	j	710 <main>
      d4:	00000000 	nop
      d8:	00000000 	nop
      dc:	03c0e825 	move	sp,s8
      e0:	8fbe000c 	lw	s8,12(sp)
      e4:	03e00008 	jr	ra
      e8:	27bd0010 	addiu	sp,sp,16
      ec:	00000000 	nop
      f0:	00000000 	nop
      f4:	00000000 	nop
      f8:	00000000 	nop
      fc:	00000000 	nop

00000100 <__vector__>:
     100:	03a0d025 	move	k0,sp
     104:	3c1d0000 	lui	sp,0x0
     108:	37bdc000 	ori	sp,sp,0xc000
     10c:	27bdff80 	addiu	sp,sp,-128
     110:	afba007c 	sw	k0,124(sp)
     114:	afa10078 	sw	at,120(sp)
     118:	afa20074 	sw	v0,116(sp)
     11c:	afa30070 	sw	v1,112(sp)
     120:	afa4006c 	sw	a0,108(sp)
     124:	afa50068 	sw	a1,104(sp)
     128:	afa60064 	sw	a2,100(sp)
     12c:	afa70060 	sw	a3,96(sp)
     130:	afa8005c 	sw	t0,92(sp)
     134:	afa90058 	sw	t1,88(sp)
     138:	afaa0054 	sw	t2,84(sp)
     13c:	afab0050 	sw	t3,80(sp)
     140:	afac004c 	sw	t4,76(sp)
     144:	afad0048 	sw	t5,72(sp)
     148:	afae0044 	sw	t6,68(sp)
     14c:	afaf0040 	sw	t7,64(sp)
     150:	afb0003c 	sw	s0,60(sp)
     154:	afb10038 	sw	s1,56(sp)
     158:	afb20034 	sw	s2,52(sp)
     15c:	afb30030 	sw	s3,48(sp)
     160:	afb4002c 	sw	s4,44(sp)
     164:	afb50028 	sw	s5,40(sp)
     168:	afb60024 	sw	s6,36(sp)
     16c:	afb70020 	sw	s7,32(sp)
     170:	afb8001c 	sw	t8,28(sp)
     174:	afb90018 	sw	t9,24(sp)
     178:	afbc0014 	sw	gp,20(sp)
     17c:	afbe0010 	sw	s8,16(sp)
     180:	afbf000c 	sw	ra,12(sp)
     184:	0c0000ad 	jal	2b4 <interrupt_handler>
     188:	00000000 	nop
     18c:	8fbf000c 	lw	ra,12(sp)
     190:	8fbe0010 	lw	s8,16(sp)
     194:	8fbc0014 	lw	gp,20(sp)
     198:	8fb90018 	lw	t9,24(sp)
     19c:	8fb8001c 	lw	t8,28(sp)
     1a0:	8fb70020 	lw	s7,32(sp)
     1a4:	8fb60024 	lw	s6,36(sp)
     1a8:	8fb50028 	lw	s5,40(sp)
     1ac:	8fb4002c 	lw	s4,44(sp)
     1b0:	8fb30030 	lw	s3,48(sp)
     1b4:	8fb20034 	lw	s2,52(sp)
     1b8:	8fb10038 	lw	s1,56(sp)
     1bc:	8fb0003c 	lw	s0,60(sp)
     1c0:	8faf0040 	lw	t7,64(sp)
     1c4:	8fae0044 	lw	t6,68(sp)
     1c8:	8fad0048 	lw	t5,72(sp)
     1cc:	8fac004c 	lw	t4,76(sp)
     1d0:	8fab0050 	lw	t3,80(sp)
     1d4:	8faa0054 	lw	t2,84(sp)
     1d8:	8fa90058 	lw	t1,88(sp)
     1dc:	8fa8005c 	lw	t0,92(sp)
     1e0:	8fa70060 	lw	a3,96(sp)
     1e4:	8fa60064 	lw	a2,100(sp)
     1e8:	8fa50068 	lw	a1,104(sp)
     1ec:	8fa4006c 	lw	a0,108(sp)
     1f0:	8fa30070 	lw	v1,112(sp)
     1f4:	8fa20074 	lw	v0,116(sp)
     1f8:	8fa10078 	lw	at,120(sp)
     1fc:	8fba007c 	lw	k0,124(sp)
     200:	00000000 	nop
     204:	0340e825 	move	sp,k0
     208:	401b7000 	mfc0	k1,c0_epc
     20c:	00000000 	nop
     210:	42000010 	c0	0x10
     214:	03600008 	jr	k1
     218:	00000000 	nop
     21c:	00000000 	nop

00000220 <memcpy>:
     220:	27bdfff0 	addiu	sp,sp,-16
     224:	afbe000c 	sw	s8,12(sp)
     228:	03a0f025 	move	s8,sp
     22c:	afc40010 	sw	a0,16(s8)
     230:	afc50014 	sw	a1,20(s8)
     234:	afc60018 	sw	a2,24(s8)
     238:	8fc20010 	lw	v0,16(s8)
     23c:	00000000 	nop
     240:	afc20000 	sw	v0,0(s8)
     244:	8fc20014 	lw	v0,20(s8)
     248:	00000000 	nop
     24c:	afc20004 	sw	v0,4(s8)
     250:	1000000c 	b	284 <memcpy+0x64>
     254:	00000000 	nop
     258:	8fc30004 	lw	v1,4(s8)
     25c:	00000000 	nop
     260:	24620001 	addiu	v0,v1,1
     264:	afc20004 	sw	v0,4(s8)
     268:	8fc20000 	lw	v0,0(s8)
     26c:	00000000 	nop
     270:	24440001 	addiu	a0,v0,1
     274:	afc40000 	sw	a0,0(s8)
     278:	80630000 	lb	v1,0(v1)
     27c:	00000000 	nop
     280:	a0430000 	sb	v1,0(v0)
     284:	8fc20018 	lw	v0,24(s8)
     288:	00000000 	nop
     28c:	2443ffff 	addiu	v1,v0,-1
     290:	afc30018 	sw	v1,24(s8)
     294:	1440fff0 	bnez	v0,258 <memcpy+0x38>
     298:	00000000 	nop
     29c:	8fc20010 	lw	v0,16(s8)
     2a0:	03c0e825 	move	sp,s8
     2a4:	8fbe000c 	lw	s8,12(sp)
     2a8:	27bd0010 	addiu	sp,sp,16
     2ac:	03e00008 	jr	ra
     2b0:	00000000 	nop

000002b4 <interrupt_handler>:
     2b4:	27bdffa8 	addiu	sp,sp,-88
     2b8:	afbf0054 	sw	ra,84(sp)
     2bc:	afbe0050 	sw	s8,80(sp)
     2c0:	03a0f025 	move	s8,sp
     2c4:	3402ff18 	li	v0,0xff18
     2c8:	afc20018 	sw	v0,24(s8)
     2cc:	3c020000 	lui	v0,0x0
     2d0:	8c4220ac 	lw	v0,8364(v0)
     2d4:	00000000 	nop
     2d8:	24430001 	addiu	v1,v0,1
     2dc:	3c020000 	lui	v0,0x0
     2e0:	ac4320ac 	sw	v1,8364(v0)
     2e4:	3c020000 	lui	v0,0x0
     2e8:	8c4320ac 	lw	v1,8364(v0)
     2ec:	2402000a 	li	v0,10
     2f0:	0062001a 	div	zero,v1,v0
     2f4:	14400002 	bnez	v0,300 <interrupt_handler+0x4c>
     2f8:	00000000 	nop
     2fc:	0007000d 	break	0x7
     300:	00001010 	mfhi	v0
     304:	1440000d 	bnez	v0,33c <interrupt_handler+0x88>
     308:	00000000 	nop
     30c:	3c020000 	lui	v0,0x0
     310:	8c4320ac 	lw	v1,8364(v0)
     314:	2402000a 	li	v0,10
     318:	0062001a 	div	zero,v1,v0
     31c:	14400002 	bnez	v0,328 <interrupt_handler+0x74>
     320:	00000000 	nop
     324:	0007000d 	break	0x7
     328:	00001010 	mfhi	v0
     32c:	00001812 	mflo	v1
     330:	8fc20018 	lw	v0,24(s8)
     334:	00000000 	nop
     338:	ac430000 	sw	v1,0(v0)
     33c:	3c020000 	lui	v0,0x0
     340:	8c422000 	lw	v0,8192(v0)
     344:	00000000 	nop
     348:	104000ea 	beqz	v0,6f4 <interrupt_handler+0x440>
     34c:	00000000 	nop
     350:	3c020000 	lui	v0,0x0
     354:	8c432000 	lw	v1,8192(v0)
     358:	24020001 	li	v0,1
     35c:	14620008 	bne	v1,v0,380 <interrupt_handler+0xcc>
     360:	00000000 	nop
     364:	3c020000 	lui	v0,0x0
     368:	ac4020b0 	sw	zero,8368(v0)
     36c:	3c020000 	lui	v0,0x0
     370:	240300c8 	li	v1,200
     374:	ac4320b4 	sw	v1,8372(v0)
     378:	100000de 	b	6f4 <interrupt_handler+0x440>
     37c:	00000000 	nop
     380:	3c020000 	lui	v0,0x0
     384:	8c432000 	lw	v1,8192(v0)
     388:	24020002 	li	v0,2
     38c:	14620091 	bne	v1,v0,5d4 <interrupt_handler+0x320>
     390:	00000000 	nop
     394:	3c020000 	lui	v0,0x0
     398:	8c4220b0 	lw	v0,8368(v0)
     39c:	00000000 	nop
     3a0:	1c400019 	bgtz	v0,408 <interrupt_handler+0x154>
     3a4:	00000000 	nop
     3a8:	0c00067d 	jal	19f4 <my_rand>
     3ac:	00000000 	nop
     3b0:	afc2001c 	sw	v0,28(s8)
     3b4:	3c020000 	lui	v0,0x0
     3b8:	8fc3001c 	lw	v1,28(s8)
     3bc:	00000000 	nop
     3c0:	00031880 	sll	v1,v1,0x2
     3c4:	24422004 	addiu	v0,v0,8196
     3c8:	00621021 	addu	v0,v1,v0
     3cc:	24030001 	li	v1,1
     3d0:	ac430000 	sw	v1,0(v0)
     3d4:	3c020000 	lui	v0,0x0
     3d8:	8fc3001c 	lw	v1,28(s8)
     3dc:	00000000 	nop
     3e0:	00031880 	sll	v1,v1,0x2
     3e4:	2442202c 	addiu	v0,v0,8236
     3e8:	00621021 	addu	v0,v1,v0
     3ec:	2403000a 	li	v1,10
     3f0:	ac430000 	sw	v1,0(v0)
     3f4:	3c020000 	lui	v0,0x0
     3f8:	2403000a 	li	v1,10
     3fc:	ac4320b0 	sw	v1,8368(v0)
     400:	10000007 	b	420 <interrupt_handler+0x16c>
     404:	00000000 	nop
     408:	3c020000 	lui	v0,0x0
     40c:	8c4220b0 	lw	v0,8368(v0)
     410:	00000000 	nop
     414:	2443ffff 	addiu	v1,v0,-1
     418:	3c020000 	lui	v0,0x0
     41c:	ac4320b0 	sw	v1,8368(v0)
     420:	afc00010 	sw	zero,16(s8)
     424:	10000032 	b	4f0 <interrupt_handler+0x23c>
     428:	00000000 	nop
     42c:	3c020000 	lui	v0,0x0
     430:	8fc30010 	lw	v1,16(s8)
     434:	00000000 	nop
     438:	00031880 	sll	v1,v1,0x2
     43c:	24422004 	addiu	v0,v0,8196
     440:	00621021 	addu	v0,v1,v0
     444:	8c430000 	lw	v1,0(v0)
     448:	24020001 	li	v0,1
     44c:	14620024 	bne	v1,v0,4e0 <interrupt_handler+0x22c>
     450:	00000000 	nop
     454:	3c020000 	lui	v0,0x0
     458:	8fc30010 	lw	v1,16(s8)
     45c:	00000000 	nop
     460:	00031880 	sll	v1,v1,0x2
     464:	2442202c 	addiu	v0,v0,8236
     468:	00621021 	addu	v0,v1,v0
     46c:	8c420000 	lw	v0,0(v0)
     470:	00000000 	nop
     474:	1c40000a 	bgtz	v0,4a0 <interrupt_handler+0x1ec>
     478:	00000000 	nop
     47c:	3c020000 	lui	v0,0x0
     480:	8fc30010 	lw	v1,16(s8)
     484:	00000000 	nop
     488:	00031880 	sll	v1,v1,0x2
     48c:	24422004 	addiu	v0,v0,8196
     490:	00621021 	addu	v0,v1,v0
     494:	ac400000 	sw	zero,0(v0)
     498:	10000011 	b	4e0 <interrupt_handler+0x22c>
     49c:	00000000 	nop
     4a0:	3c020000 	lui	v0,0x0
     4a4:	8fc30010 	lw	v1,16(s8)
     4a8:	00000000 	nop
     4ac:	00031880 	sll	v1,v1,0x2
     4b0:	2442202c 	addiu	v0,v0,8236
     4b4:	00621021 	addu	v0,v1,v0
     4b8:	8c420000 	lw	v0,0(v0)
     4bc:	00000000 	nop
     4c0:	2443ffff 	addiu	v1,v0,-1
     4c4:	3c020000 	lui	v0,0x0
     4c8:	8fc40010 	lw	a0,16(s8)
     4cc:	00000000 	nop
     4d0:	00042080 	sll	a0,a0,0x2
     4d4:	2442202c 	addiu	v0,v0,8236
     4d8:	00821021 	addu	v0,a0,v0
     4dc:	ac430000 	sw	v1,0(v0)
     4e0:	8fc20010 	lw	v0,16(s8)
     4e4:	00000000 	nop
     4e8:	24420001 	addiu	v0,v0,1
     4ec:	afc20010 	sw	v0,16(s8)
     4f0:	8fc20010 	lw	v0,16(s8)
     4f4:	00000000 	nop
     4f8:	2842000a 	slti	v0,v0,10
     4fc:	1440ffcb 	bnez	v0,42c <interrupt_handler+0x178>
     500:	00000000 	nop
     504:	3c020000 	lui	v0,0x0
     508:	8c4220b4 	lw	v0,8372(v0)
     50c:	00000000 	nop
     510:	18400009 	blez	v0,538 <interrupt_handler+0x284>
     514:	00000000 	nop
     518:	3c020000 	lui	v0,0x0
     51c:	8c4220b4 	lw	v0,8372(v0)
     520:	00000000 	nop
     524:	2443ffff 	addiu	v1,v0,-1
     528:	3c020000 	lui	v0,0x0
     52c:	ac4320b4 	sw	v1,8372(v0)
     530:	10000004 	b	544 <interrupt_handler+0x290>
     534:	00000000 	nop
     538:	3c020000 	lui	v0,0x0
     53c:	24030003 	li	v1,3
     540:	ac432000 	sw	v1,8192(v0)
     544:	0c000456 	jal	1158 <lcd_clear_vbuf>
     548:	00000000 	nop
     54c:	0c00028b 	jal	a2c <show_cats>
     550:	00000000 	nop
     554:	3c020000 	lui	v0,0x0
     558:	8c4320a4 	lw	v1,8356(v0)
     55c:	3c020000 	lui	v0,0x0
     560:	000318c0 	sll	v1,v1,0x3
     564:	24422054 	addiu	v0,v0,8276
     568:	00621021 	addu	v0,v1,v0
     56c:	8c420000 	lw	v0,0(v0)
     570:	00000000 	nop
     574:	afc20020 	sw	v0,32(s8)
     578:	3c020000 	lui	v0,0x0
     57c:	8c4320a4 	lw	v1,8356(v0)
     580:	3c020000 	lui	v0,0x0
     584:	000318c0 	sll	v1,v1,0x3
     588:	24422054 	addiu	v0,v0,8276
     58c:	00621021 	addu	v0,v1,v0
     590:	8c420004 	lw	v0,4(v0)
     594:	00000000 	nop
     598:	afc20024 	sw	v0,36(s8)
     59c:	8fc20024 	lw	v0,36(s8)
     5a0:	00000000 	nop
     5a4:	2442ffff 	addiu	v0,v0,-1
     5a8:	24060078 	li	a2,120
     5ac:	8fc50020 	lw	a1,32(s8)
     5b0:	00402025 	move	a0,v0
     5b4:	0c0004b8 	jal	12e0 <lcd_putc>
     5b8:	00000000 	nop
     5bc:	0c0002d4 	jal	b50 <show_score>
     5c0:	00000000 	nop
     5c4:	0c000484 	jal	1210 <lcd_sync_vbuf>
     5c8:	00000000 	nop
     5cc:	10000049 	b	6f4 <interrupt_handler+0x440>
     5d0:	00000000 	nop
     5d4:	3c020000 	lui	v0,0x0
     5d8:	8c432000 	lw	v1,8192(v0)
     5dc:	24020003 	li	v0,3
     5e0:	14620044 	bne	v1,v0,6f4 <interrupt_handler+0x440>
     5e4:	00000000 	nop
     5e8:	0c000456 	jal	1158 <lcd_clear_vbuf>
     5ec:	00000000 	nop
     5f0:	3c027363 	lui	v0,0x7363
     5f4:	34426f72 	ori	v0,v0,0x6f72
     5f8:	afc20038 	sw	v0,56(s8)
     5fc:	2402653a 	li	v0,25914
     600:	a7c2003c 	sh	v0,60(s8)
     604:	a3c0003e 	sb	zero,62(s8)
     608:	3c020000 	lui	v0,0x0
     60c:	8c441fa4 	lw	a0,8100(v0)
     610:	24431fa4 	addiu	v1,v0,8100
     614:	8c630004 	lw	v1,4(v1)
     618:	afc40040 	sw	a0,64(s8)
     61c:	afc30044 	sw	v1,68(s8)
     620:	24421fa4 	addiu	v0,v0,8100
     624:	94420008 	lhu	v0,8(v0)
     628:	00000000 	nop
     62c:	a7c20048 	sh	v0,72(s8)
     630:	27c20040 	addiu	v0,s8,64
     634:	00403025 	move	a2,v0
     638:	00002825 	move	a1,zero
     63c:	24040002 	li	a0,2
     640:	0c000504 	jal	1410 <lcd_puts>
     644:	00000000 	nop
     648:	3c020000 	lui	v0,0x0
     64c:	8c4320a8 	lw	v1,8360(v0)
     650:	27c20028 	addiu	v0,s8,40
     654:	24420006 	addiu	v0,v0,6
     658:	2406000a 	li	a2,10
     65c:	00402825 	move	a1,v0
     660:	00602025 	move	a0,v1
     664:	0c0006a5 	jal	1a94 <my_itoa>
     668:	00000000 	nop
     66c:	afc00014 	sw	zero,20(s8)
     670:	1000000d 	b	6a8 <interrupt_handler+0x3f4>
     674:	00000000 	nop
     678:	8fc20014 	lw	v0,20(s8)
     67c:	27c30010 	addiu	v1,s8,16
     680:	00621021 	addu	v0,v1,v0
     684:	80430028 	lb	v1,40(v0)
     688:	8fc20014 	lw	v0,20(s8)
     68c:	27c40010 	addiu	a0,s8,16
     690:	00821021 	addu	v0,a0,v0
     694:	a0430018 	sb	v1,24(v0)
     698:	8fc20014 	lw	v0,20(s8)
     69c:	00000000 	nop
     6a0:	24420001 	addiu	v0,v0,1
     6a4:	afc20014 	sw	v0,20(s8)
     6a8:	8fc20014 	lw	v0,20(s8)
     6ac:	00000000 	nop
     6b0:	28420006 	slti	v0,v0,6
     6b4:	1440fff0 	bnez	v0,678 <interrupt_handler+0x3c4>
     6b8:	00000000 	nop
     6bc:	27c20028 	addiu	v0,s8,40
     6c0:	00403025 	move	a2,v0
     6c4:	00002825 	move	a1,zero
     6c8:	24040003 	li	a0,3
     6cc:	0c000504 	jal	1410 <lcd_puts>
     6d0:	00000000 	nop
     6d4:	27c20040 	addiu	v0,s8,64
     6d8:	00403025 	move	a2,v0
     6dc:	00002825 	move	a1,zero
     6e0:	24040004 	li	a0,4
     6e4:	0c000504 	jal	1410 <lcd_puts>
     6e8:	00000000 	nop
     6ec:	0c000484 	jal	1210 <lcd_sync_vbuf>
     6f0:	00000000 	nop
     6f4:	00000000 	nop
     6f8:	03c0e825 	move	sp,s8
     6fc:	8fbf0054 	lw	ra,84(sp)
     700:	8fbe0050 	lw	s8,80(sp)
     704:	27bd0058 	addiu	sp,sp,88
     708:	03e00008 	jr	ra
     70c:	00000000 	nop

00000710 <main>:
     710:	27bdff90 	addiu	sp,sp,-112
     714:	afbf006c 	sw	ra,108(sp)
     718:	afbe0068 	sw	s8,104(sp)
     71c:	03a0f025 	move	s8,sp
     720:	3c020000 	lui	v0,0x0
     724:	8c422000 	lw	v0,8192(v0)
     728:	00000000 	nop
     72c:	1440003d 	bnez	v0,824 <main+0x114>
     730:	00000000 	nop
     734:	3c020000 	lui	v0,0x0
     738:	27c30014 	addiu	v1,s8,20
     73c:	24421fb0 	addiu	v0,v0,8112
     740:	24040050 	li	a0,80
     744:	00803025 	move	a2,a0
     748:	00402825 	move	a1,v0
     74c:	00602025 	move	a0,v1
     750:	0c000088 	jal	220 <memcpy>
     754:	00000000 	nop
     758:	afc00010 	sw	zero,16(s8)
     75c:	1000001f 	b	7dc <main+0xcc>
     760:	00000000 	nop
     764:	8fc20010 	lw	v0,16(s8)
     768:	00000000 	nop
     76c:	000210c0 	sll	v0,v0,0x3
     770:	27c30010 	addiu	v1,s8,16
     774:	00621021 	addu	v0,v1,v0
     778:	8c430004 	lw	v1,4(v0)
     77c:	3c020000 	lui	v0,0x0
     780:	8fc40010 	lw	a0,16(s8)
     784:	00000000 	nop
     788:	000420c0 	sll	a0,a0,0x3
     78c:	24422054 	addiu	v0,v0,8276
     790:	00821021 	addu	v0,a0,v0
     794:	ac430000 	sw	v1,0(v0)
     798:	8fc20010 	lw	v0,16(s8)
     79c:	00000000 	nop
     7a0:	000210c0 	sll	v0,v0,0x3
     7a4:	27c30010 	addiu	v1,s8,16
     7a8:	00621021 	addu	v0,v1,v0
     7ac:	8c430008 	lw	v1,8(v0)
     7b0:	3c020000 	lui	v0,0x0
     7b4:	8fc40010 	lw	a0,16(s8)
     7b8:	00000000 	nop
     7bc:	000420c0 	sll	a0,a0,0x3
     7c0:	24422054 	addiu	v0,v0,8276
     7c4:	00821021 	addu	v0,a0,v0
     7c8:	ac430004 	sw	v1,4(v0)
     7cc:	8fc20010 	lw	v0,16(s8)
     7d0:	00000000 	nop
     7d4:	24420001 	addiu	v0,v0,1
     7d8:	afc20010 	sw	v0,16(s8)
     7dc:	8fc20010 	lw	v0,16(s8)
     7e0:	00000000 	nop
     7e4:	2842000a 	slti	v0,v0,10
     7e8:	1440ffde 	bnez	v0,764 <main+0x54>
     7ec:	00000000 	nop
     7f0:	3c020000 	lui	v0,0x0
     7f4:	2403044c 	li	v1,1100
     7f8:	ac4320b8 	sw	v1,8376(v0)
     7fc:	0c0003f3 	jal	fcc <lcd_init>
     800:	00000000 	nop
     804:	3c020000 	lui	v0,0x0
     808:	240300c8 	li	v1,200
     80c:	ac4320b4 	sw	v1,8372(v0)
     810:	3c020000 	lui	v0,0x0
     814:	24030001 	li	v1,1
     818:	ac432000 	sw	v1,8192(v0)
     81c:	1000ffc0 	b	720 <main+0x10>
     820:	00000000 	nop
     824:	3c020000 	lui	v0,0x0
     828:	8c432000 	lw	v1,8192(v0)
     82c:	24020001 	li	v0,1
     830:	14620006 	bne	v1,v0,84c <main+0x13c>
     834:	00000000 	nop
     838:	3c020000 	lui	v0,0x0
     83c:	24030002 	li	v1,2
     840:	ac432000 	sw	v1,8192(v0)
     844:	1000ffb6 	b	720 <main+0x10>
     848:	00000000 	nop
     84c:	3c020000 	lui	v0,0x0
     850:	8c432000 	lw	v1,8192(v0)
     854:	24020002 	li	v0,2
     858:	14620008 	bne	v1,v0,87c <main+0x16c>
     85c:	00000000 	nop
     860:	0c000229 	jal	8a4 <play>
     864:	00000000 	nop
     868:	3c020000 	lui	v0,0x0
     86c:	24030003 	li	v1,3
     870:	ac432000 	sw	v1,8192(v0)
     874:	1000ffaa 	b	720 <main+0x10>
     878:	00000000 	nop
     87c:	3c020000 	lui	v0,0x0
     880:	8c432000 	lw	v1,8192(v0)
     884:	24020003 	li	v0,3
     888:	1462ffa5 	bne	v1,v0,720 <main+0x10>
     88c:	00000000 	nop
     890:	3c020000 	lui	v0,0x0
     894:	24030001 	li	v1,1
     898:	ac432000 	sw	v1,8192(v0)
     89c:	1000ffa0 	b	720 <main+0x10>
     8a0:	00000000 	nop

000008a4 <play>:
     8a4:	27bdffd0 	addiu	sp,sp,-48
     8a8:	afbf002c 	sw	ra,44(sp)
     8ac:	afbe0028 	sw	s8,40(sp)
     8b0:	03a0f025 	move	s8,sp
     8b4:	2402ffff 	li	v0,-1
     8b8:	afc20010 	sw	v0,16(s8)
     8bc:	24020384 	li	v0,900
     8c0:	afc2001c 	sw	v0,28(s8)
     8c4:	240201f4 	li	v0,500
     8c8:	afc20020 	sw	v0,32(s8)
     8cc:	afc00014 	sw	zero,20(s8)
     8d0:	0c000541 	jal	1504 <kypd_scan>
     8d4:	00000000 	nop
     8d8:	afc20024 	sw	v0,36(s8)
     8dc:	8fc30024 	lw	v1,36(s8)
     8e0:	2402ffff 	li	v0,-1
     8e4:	1062003f 	beq	v1,v0,9e4 <play+0x140>
     8e8:	00000000 	nop
     8ec:	8fc30010 	lw	v1,16(s8)
     8f0:	8fc20024 	lw	v0,36(s8)
     8f4:	00000000 	nop
     8f8:	10620028 	beq	v1,v0,99c <play+0xf8>
     8fc:	00000000 	nop
     900:	8fc30024 	lw	v1,36(s8)
     904:	24020009 	li	v0,9
     908:	1462001c 	bne	v1,v0,97c <play+0xd8>
     90c:	00000000 	nop
     910:	3c020000 	lui	v0,0x0
     914:	8c4320a4 	lw	v1,8356(v0)
     918:	3c020000 	lui	v0,0x0
     91c:	00031880 	sll	v1,v1,0x2
     920:	24422004 	addiu	v0,v0,8196
     924:	00621021 	addu	v0,v1,v0
     928:	8c430000 	lw	v1,0(v0)
     92c:	24020001 	li	v0,1
     930:	14620015 	bne	v1,v0,988 <play+0xe4>
     934:	00000000 	nop
     938:	3c020000 	lui	v0,0x0
     93c:	8c4320a4 	lw	v1,8356(v0)
     940:	3c020000 	lui	v0,0x0
     944:	00031880 	sll	v1,v1,0x2
     948:	24422004 	addiu	v0,v0,8196
     94c:	00621021 	addu	v0,v1,v0
     950:	ac400000 	sw	zero,0(v0)
     954:	0c00035c 	jal	d70 <led_blink>
     958:	00000000 	nop
     95c:	3c020000 	lui	v0,0x0
     960:	8c4220a8 	lw	v0,8360(v0)
     964:	00000000 	nop
     968:	24430001 	addiu	v1,v0,1
     96c:	3c020000 	lui	v0,0x0
     970:	ac4320a8 	sw	v1,8360(v0)
     974:	10000004 	b	988 <play+0xe4>
     978:	00000000 	nop
     97c:	8fc40024 	lw	a0,36(s8)
     980:	0c000624 	jal	1890 <move_cursor>
     984:	00000000 	nop
     988:	8fc2001c 	lw	v0,28(s8)
     98c:	00000000 	nop
     990:	afc20014 	sw	v0,20(s8)
     994:	10000014 	b	9e8 <play+0x144>
     998:	00000000 	nop
     99c:	8fc20014 	lw	v0,20(s8)
     9a0:	00000000 	nop
     9a4:	1c400009 	bgtz	v0,9cc <play+0x128>
     9a8:	00000000 	nop
     9ac:	8fc40024 	lw	a0,36(s8)
     9b0:	0c000624 	jal	1890 <move_cursor>
     9b4:	00000000 	nop
     9b8:	8fc20020 	lw	v0,32(s8)
     9bc:	00000000 	nop
     9c0:	afc20014 	sw	v0,20(s8)
     9c4:	10000008 	b	9e8 <play+0x144>
     9c8:	00000000 	nop
     9cc:	8fc20014 	lw	v0,20(s8)
     9d0:	00000000 	nop
     9d4:	2442ffff 	addiu	v0,v0,-1
     9d8:	afc20014 	sw	v0,20(s8)
     9dc:	10000002 	b	9e8 <play+0x144>
     9e0:	00000000 	nop
     9e4:	afc00014 	sw	zero,20(s8)
     9e8:	8fc20024 	lw	v0,36(s8)
     9ec:	00000000 	nop
     9f0:	afc20010 	sw	v0,16(s8)
     9f4:	afc00018 	sw	zero,24(s8)
     9f8:	10000005 	b	a10 <play+0x16c>
     9fc:	00000000 	nop
     a00:	8fc20018 	lw	v0,24(s8)
     a04:	00000000 	nop
     a08:	24420001 	addiu	v0,v0,1
     a0c:	afc20018 	sw	v0,24(s8)
     a10:	8fc20018 	lw	v0,24(s8)
     a14:	00000000 	nop
     a18:	284203e8 	slti	v0,v0,1000
     a1c:	1440fff8 	bnez	v0,a00 <play+0x15c>
     a20:	00000000 	nop
     a24:	1000ffaa 	b	8d0 <play+0x2c>
     a28:	00000000 	nop

00000a2c <show_cats>:
     a2c:	27bdffd8 	addiu	sp,sp,-40
     a30:	afbf0024 	sw	ra,36(sp)
     a34:	afbe0020 	sw	s8,32(sp)
     a38:	03a0f025 	move	s8,sp
     a3c:	afc00010 	sw	zero,16(s8)
     a40:	10000037 	b	b20 <show_cats+0xf4>
     a44:	00000000 	nop
     a48:	3c020000 	lui	v0,0x0
     a4c:	8fc30010 	lw	v1,16(s8)
     a50:	00000000 	nop
     a54:	000318c0 	sll	v1,v1,0x3
     a58:	24422054 	addiu	v0,v0,8276
     a5c:	00621021 	addu	v0,v1,v0
     a60:	8c420000 	lw	v0,0(v0)
     a64:	00000000 	nop
     a68:	afc20014 	sw	v0,20(s8)
     a6c:	3c020000 	lui	v0,0x0
     a70:	8fc30010 	lw	v1,16(s8)
     a74:	00000000 	nop
     a78:	000318c0 	sll	v1,v1,0x3
     a7c:	24422054 	addiu	v0,v0,8276
     a80:	00621021 	addu	v0,v1,v0
     a84:	8c420004 	lw	v0,4(v0)
     a88:	00000000 	nop
     a8c:	afc20018 	sw	v0,24(s8)
     a90:	3c020000 	lui	v0,0x0
     a94:	8fc30010 	lw	v1,16(s8)
     a98:	00000000 	nop
     a9c:	00031880 	sll	v1,v1,0x2
     aa0:	24422004 	addiu	v0,v0,8196
     aa4:	00621021 	addu	v0,v1,v0
     aa8:	8c430000 	lw	v1,0(v0)
     aac:	24020001 	li	v0,1
     ab0:	14620008 	bne	v1,v0,ad4 <show_cats+0xa8>
     ab4:	00000000 	nop
     ab8:	24060043 	li	a2,67
     abc:	8fc50014 	lw	a1,20(s8)
     ac0:	8fc40018 	lw	a0,24(s8)
     ac4:	0c0004b8 	jal	12e0 <lcd_putc>
     ac8:	00000000 	nop
     acc:	10000010 	b	b10 <show_cats+0xe4>
     ad0:	00000000 	nop
     ad4:	3c020000 	lui	v0,0x0
     ad8:	8fc30010 	lw	v1,16(s8)
     adc:	00000000 	nop
     ae0:	00031880 	sll	v1,v1,0x2
     ae4:	24422004 	addiu	v0,v0,8196
     ae8:	00621021 	addu	v0,v1,v0
     aec:	8c420000 	lw	v0,0(v0)
     af0:	00000000 	nop
     af4:	14400006 	bnez	v0,b10 <show_cats+0xe4>
     af8:	00000000 	nop
     afc:	2406005f 	li	a2,95
     b00:	8fc50014 	lw	a1,20(s8)
     b04:	8fc40018 	lw	a0,24(s8)
     b08:	0c0004b8 	jal	12e0 <lcd_putc>
     b0c:	00000000 	nop
     b10:	8fc20010 	lw	v0,16(s8)
     b14:	00000000 	nop
     b18:	24420001 	addiu	v0,v0,1
     b1c:	afc20010 	sw	v0,16(s8)
     b20:	8fc20010 	lw	v0,16(s8)
     b24:	00000000 	nop
     b28:	2842000a 	slti	v0,v0,10
     b2c:	1440ffc6 	bnez	v0,a48 <show_cats+0x1c>
     b30:	00000000 	nop
     b34:	00000000 	nop
     b38:	03c0e825 	move	sp,s8
     b3c:	8fbf0024 	lw	ra,36(sp)
     b40:	8fbe0020 	lw	s8,32(sp)
     b44:	27bd0028 	addiu	sp,sp,40
     b48:	03e00008 	jr	ra
     b4c:	00000000 	nop

00000b50 <show_score>:
     b50:	27bdffc8 	addiu	sp,sp,-56
     b54:	afbf0034 	sw	ra,52(sp)
     b58:	afbe0030 	sw	s8,48(sp)
     b5c:	03a0f025 	move	s8,sp
     b60:	3c027363 	lui	v0,0x7363
     b64:	34426f72 	ori	v0,v0,0x6f72
     b68:	afc20024 	sw	v0,36(s8)
     b6c:	2402653a 	li	v0,25914
     b70:	a7c20028 	sh	v0,40(s8)
     b74:	a3c0002a 	sb	zero,42(s8)
     b78:	3c020000 	lui	v0,0x0
     b7c:	8c4320a8 	lw	v1,8360(v0)
     b80:	27c20014 	addiu	v0,s8,20
     b84:	24420006 	addiu	v0,v0,6
     b88:	2406000a 	li	a2,10
     b8c:	00402825 	move	a1,v0
     b90:	00602025 	move	a0,v1
     b94:	0c0006a5 	jal	1a94 <my_itoa>
     b98:	00000000 	nop
     b9c:	afc00010 	sw	zero,16(s8)
     ba0:	1000000d 	b	bd8 <show_score+0x88>
     ba4:	00000000 	nop
     ba8:	8fc20010 	lw	v0,16(s8)
     bac:	27c30010 	addiu	v1,s8,16
     bb0:	00621021 	addu	v0,v1,v0
     bb4:	80430014 	lb	v1,20(v0)
     bb8:	8fc20010 	lw	v0,16(s8)
     bbc:	27c40010 	addiu	a0,s8,16
     bc0:	00821021 	addu	v0,a0,v0
     bc4:	a0430004 	sb	v1,4(v0)
     bc8:	8fc20010 	lw	v0,16(s8)
     bcc:	00000000 	nop
     bd0:	24420001 	addiu	v0,v0,1
     bd4:	afc20010 	sw	v0,16(s8)
     bd8:	8fc20010 	lw	v0,16(s8)
     bdc:	00000000 	nop
     be0:	28420006 	slti	v0,v0,6
     be4:	1440fff0 	bnez	v0,ba8 <show_score+0x58>
     be8:	00000000 	nop
     bec:	27c20014 	addiu	v0,s8,20
     bf0:	00403025 	move	a2,v0
     bf4:	00002825 	move	a1,zero
     bf8:	00002025 	move	a0,zero
     bfc:	0c000504 	jal	1410 <lcd_puts>
     c00:	00000000 	nop
     c04:	00000000 	nop
     c08:	03c0e825 	move	sp,s8
     c0c:	8fbf0034 	lw	ra,52(sp)
     c10:	8fbe0030 	lw	s8,48(sp)
     c14:	27bd0038 	addiu	sp,sp,56
     c18:	03e00008 	jr	ra
     c1c:	00000000 	nop

00000c20 <btn_check_0>:
     c20:	27bdfff0 	addiu	sp,sp,-16
     c24:	afbe000c 	sw	s8,12(sp)
     c28:	03a0f025 	move	s8,sp
     c2c:	3402ff04 	li	v0,0xff04
     c30:	afc20000 	sw	v0,0(s8)
     c34:	8fc20000 	lw	v0,0(s8)
     c38:	00000000 	nop
     c3c:	8c420000 	lw	v0,0(v0)
     c40:	00000000 	nop
     c44:	30420010 	andi	v0,v0,0x10
     c48:	0002102b 	sltu	v0,zero,v0
     c4c:	304200ff 	andi	v0,v0,0xff
     c50:	03c0e825 	move	sp,s8
     c54:	8fbe000c 	lw	s8,12(sp)
     c58:	27bd0010 	addiu	sp,sp,16
     c5c:	03e00008 	jr	ra
     c60:	00000000 	nop

00000c64 <btn_check_1>:
     c64:	27bdfff0 	addiu	sp,sp,-16
     c68:	afbe000c 	sw	s8,12(sp)
     c6c:	03a0f025 	move	s8,sp
     c70:	3402ff04 	li	v0,0xff04
     c74:	afc20000 	sw	v0,0(s8)
     c78:	8fc20000 	lw	v0,0(s8)
     c7c:	00000000 	nop
     c80:	8c420000 	lw	v0,0(v0)
     c84:	00000000 	nop
     c88:	30420020 	andi	v0,v0,0x20
     c8c:	0002102b 	sltu	v0,zero,v0
     c90:	304200ff 	andi	v0,v0,0xff
     c94:	03c0e825 	move	sp,s8
     c98:	8fbe000c 	lw	s8,12(sp)
     c9c:	27bd0010 	addiu	sp,sp,16
     ca0:	03e00008 	jr	ra
     ca4:	00000000 	nop

00000ca8 <btn_check_2>:
     ca8:	27bdfff0 	addiu	sp,sp,-16
     cac:	afbe000c 	sw	s8,12(sp)
     cb0:	03a0f025 	move	s8,sp
     cb4:	3402ff04 	li	v0,0xff04
     cb8:	afc20000 	sw	v0,0(s8)
     cbc:	8fc20000 	lw	v0,0(s8)
     cc0:	00000000 	nop
     cc4:	8c420000 	lw	v0,0(v0)
     cc8:	00000000 	nop
     ccc:	30420040 	andi	v0,v0,0x40
     cd0:	0002102b 	sltu	v0,zero,v0
     cd4:	304200ff 	andi	v0,v0,0xff
     cd8:	03c0e825 	move	sp,s8
     cdc:	8fbe000c 	lw	s8,12(sp)
     ce0:	27bd0010 	addiu	sp,sp,16
     ce4:	03e00008 	jr	ra
     ce8:	00000000 	nop

00000cec <btn_check_3>:
     cec:	27bdfff0 	addiu	sp,sp,-16
     cf0:	afbe000c 	sw	s8,12(sp)
     cf4:	03a0f025 	move	s8,sp
     cf8:	3402ff04 	li	v0,0xff04
     cfc:	afc20000 	sw	v0,0(s8)
     d00:	8fc20000 	lw	v0,0(s8)
     d04:	00000000 	nop
     d08:	8c420000 	lw	v0,0(v0)
     d0c:	00000000 	nop
     d10:	30420080 	andi	v0,v0,0x80
     d14:	0002102b 	sltu	v0,zero,v0
     d18:	304200ff 	andi	v0,v0,0xff
     d1c:	03c0e825 	move	sp,s8
     d20:	8fbe000c 	lw	s8,12(sp)
     d24:	27bd0010 	addiu	sp,sp,16
     d28:	03e00008 	jr	ra
     d2c:	00000000 	nop

00000d30 <led_set>:
     d30:	27bdfff0 	addiu	sp,sp,-16
     d34:	afbe000c 	sw	s8,12(sp)
     d38:	03a0f025 	move	s8,sp
     d3c:	afc40010 	sw	a0,16(s8)
     d40:	3402ff08 	li	v0,0xff08
     d44:	afc20000 	sw	v0,0(s8)
     d48:	8fc20000 	lw	v0,0(s8)
     d4c:	8fc30010 	lw	v1,16(s8)
     d50:	00000000 	nop
     d54:	ac430000 	sw	v1,0(v0)
     d58:	00000000 	nop
     d5c:	03c0e825 	move	sp,s8
     d60:	8fbe000c 	lw	s8,12(sp)
     d64:	27bd0010 	addiu	sp,sp,16
     d68:	03e00008 	jr	ra
     d6c:	00000000 	nop

00000d70 <led_blink>:
     d70:	27bdffd8 	addiu	sp,sp,-40
     d74:	afbf0024 	sw	ra,36(sp)
     d78:	afbe0020 	sw	s8,32(sp)
     d7c:	03a0f025 	move	s8,sp
     d80:	2404000f 	li	a0,15
     d84:	0c00034c 	jal	d30 <led_set>
     d88:	00000000 	nop
     d8c:	afc00010 	sw	zero,16(s8)
     d90:	10000005 	b	da8 <led_blink+0x38>
     d94:	00000000 	nop
     d98:	8fc20010 	lw	v0,16(s8)
     d9c:	00000000 	nop
     da0:	24420001 	addiu	v0,v0,1
     da4:	afc20010 	sw	v0,16(s8)
     da8:	8fc30010 	lw	v1,16(s8)
     dac:	3c020004 	lui	v0,0x4
     db0:	344293e0 	ori	v0,v0,0x93e0
     db4:	0062102a 	slt	v0,v1,v0
     db8:	1440fff7 	bnez	v0,d98 <led_blink+0x28>
     dbc:	00000000 	nop
     dc0:	00002025 	move	a0,zero
     dc4:	0c00034c 	jal	d30 <led_set>
     dc8:	00000000 	nop
     dcc:	afc00014 	sw	zero,20(s8)
     dd0:	10000005 	b	de8 <led_blink+0x78>
     dd4:	00000000 	nop
     dd8:	8fc20014 	lw	v0,20(s8)
     ddc:	00000000 	nop
     de0:	24420001 	addiu	v0,v0,1
     de4:	afc20014 	sw	v0,20(s8)
     de8:	8fc30014 	lw	v1,20(s8)
     dec:	3c020004 	lui	v0,0x4
     df0:	344293e0 	ori	v0,v0,0x93e0
     df4:	0062102a 	slt	v0,v1,v0
     df8:	1440fff7 	bnez	v0,dd8 <led_blink+0x68>
     dfc:	00000000 	nop
     e00:	2404000f 	li	a0,15
     e04:	0c00034c 	jal	d30 <led_set>
     e08:	00000000 	nop
     e0c:	afc00018 	sw	zero,24(s8)
     e10:	10000005 	b	e28 <led_blink+0xb8>
     e14:	00000000 	nop
     e18:	8fc20018 	lw	v0,24(s8)
     e1c:	00000000 	nop
     e20:	24420001 	addiu	v0,v0,1
     e24:	afc20018 	sw	v0,24(s8)
     e28:	8fc30018 	lw	v1,24(s8)
     e2c:	3c020004 	lui	v0,0x4
     e30:	344293e0 	ori	v0,v0,0x93e0
     e34:	0062102a 	slt	v0,v1,v0
     e38:	1440fff7 	bnez	v0,e18 <led_blink+0xa8>
     e3c:	00000000 	nop
     e40:	00002025 	move	a0,zero
     e44:	0c00034c 	jal	d30 <led_set>
     e48:	00000000 	nop
     e4c:	00000000 	nop
     e50:	03c0e825 	move	sp,s8
     e54:	8fbf0024 	lw	ra,36(sp)
     e58:	8fbe0020 	lw	s8,32(sp)
     e5c:	27bd0028 	addiu	sp,sp,40
     e60:	03e00008 	jr	ra
     e64:	00000000 	nop

00000e68 <lcd_wait>:
     e68:	27bdfff0 	addiu	sp,sp,-16
     e6c:	afbe000c 	sw	s8,12(sp)
     e70:	03a0f025 	move	s8,sp
     e74:	afc40010 	sw	a0,16(s8)
     e78:	afc00000 	sw	zero,0(s8)
     e7c:	10000005 	b	e94 <lcd_wait+0x2c>
     e80:	00000000 	nop
     e84:	8fc20000 	lw	v0,0(s8)
     e88:	00000000 	nop
     e8c:	24420001 	addiu	v0,v0,1
     e90:	afc20000 	sw	v0,0(s8)
     e94:	8fc30000 	lw	v1,0(s8)
     e98:	8fc20010 	lw	v0,16(s8)
     e9c:	00000000 	nop
     ea0:	0062102a 	slt	v0,v1,v0
     ea4:	1440fff7 	bnez	v0,e84 <lcd_wait+0x1c>
     ea8:	00000000 	nop
     eac:	00000000 	nop
     eb0:	03c0e825 	move	sp,s8
     eb4:	8fbe000c 	lw	s8,12(sp)
     eb8:	27bd0010 	addiu	sp,sp,16
     ebc:	03e00008 	jr	ra
     ec0:	00000000 	nop

00000ec4 <lcd_cmd>:
     ec4:	27bdffe0 	addiu	sp,sp,-32
     ec8:	afbf001c 	sw	ra,28(sp)
     ecc:	afbe0018 	sw	s8,24(sp)
     ed0:	03a0f025 	move	s8,sp
     ed4:	00801025 	move	v0,a0
     ed8:	a3c20020 	sb	v0,32(s8)
     edc:	3402ff0c 	li	v0,0xff0c
     ee0:	afc20010 	sw	v0,16(s8)
     ee4:	93c30020 	lbu	v1,32(s8)
     ee8:	8fc20010 	lw	v0,16(s8)
     eec:	00000000 	nop
     ef0:	ac430000 	sw	v1,0(v0)
     ef4:	240403e8 	li	a0,1000
     ef8:	0c00039a 	jal	e68 <lcd_wait>
     efc:	00000000 	nop
     f00:	00000000 	nop
     f04:	03c0e825 	move	sp,s8
     f08:	8fbf001c 	lw	ra,28(sp)
     f0c:	8fbe0018 	lw	s8,24(sp)
     f10:	27bd0020 	addiu	sp,sp,32
     f14:	03e00008 	jr	ra
     f18:	00000000 	nop

00000f1c <lcd_data>:
     f1c:	27bdffe0 	addiu	sp,sp,-32
     f20:	afbf001c 	sw	ra,28(sp)
     f24:	afbe0018 	sw	s8,24(sp)
     f28:	03a0f025 	move	s8,sp
     f2c:	00801025 	move	v0,a0
     f30:	a3c20020 	sb	v0,32(s8)
     f34:	3402ff0c 	li	v0,0xff0c
     f38:	afc20010 	sw	v0,16(s8)
     f3c:	93c20020 	lbu	v0,32(s8)
     f40:	00000000 	nop
     f44:	34430100 	ori	v1,v0,0x100
     f48:	8fc20010 	lw	v0,16(s8)
     f4c:	00000000 	nop
     f50:	ac430000 	sw	v1,0(v0)
     f54:	240400c8 	li	a0,200
     f58:	0c00039a 	jal	e68 <lcd_wait>
     f5c:	00000000 	nop
     f60:	00000000 	nop
     f64:	03c0e825 	move	sp,s8
     f68:	8fbf001c 	lw	ra,28(sp)
     f6c:	8fbe0018 	lw	s8,24(sp)
     f70:	27bd0020 	addiu	sp,sp,32
     f74:	03e00008 	jr	ra
     f78:	00000000 	nop

00000f7c <lcd_pwr_on>:
     f7c:	27bdffe0 	addiu	sp,sp,-32
     f80:	afbf001c 	sw	ra,28(sp)
     f84:	afbe0018 	sw	s8,24(sp)
     f88:	03a0f025 	move	s8,sp
     f8c:	3402ff0c 	li	v0,0xff0c
     f90:	afc20010 	sw	v0,16(s8)
     f94:	8fc20010 	lw	v0,16(s8)
     f98:	24030200 	li	v1,512
     f9c:	ac430000 	sw	v1,0(v0)
     fa0:	3c02000a 	lui	v0,0xa
     fa4:	3444ae60 	ori	a0,v0,0xae60
     fa8:	0c00039a 	jal	e68 <lcd_wait>
     fac:	00000000 	nop
     fb0:	00000000 	nop
     fb4:	03c0e825 	move	sp,s8
     fb8:	8fbf001c 	lw	ra,28(sp)
     fbc:	8fbe0018 	lw	s8,24(sp)
     fc0:	27bd0020 	addiu	sp,sp,32
     fc4:	03e00008 	jr	ra
     fc8:	00000000 	nop

00000fcc <lcd_init>:
     fcc:	27bdffe8 	addiu	sp,sp,-24
     fd0:	afbf0014 	sw	ra,20(sp)
     fd4:	afbe0010 	sw	s8,16(sp)
     fd8:	03a0f025 	move	s8,sp
     fdc:	0c0003df 	jal	f7c <lcd_pwr_on>
     fe0:	00000000 	nop
     fe4:	240400a0 	li	a0,160
     fe8:	0c0003b1 	jal	ec4 <lcd_cmd>
     fec:	00000000 	nop
     ff0:	24040020 	li	a0,32
     ff4:	0c0003b1 	jal	ec4 <lcd_cmd>
     ff8:	00000000 	nop
     ffc:	24040015 	li	a0,21
    1000:	0c0003b1 	jal	ec4 <lcd_cmd>
    1004:	00000000 	nop
    1008:	00002025 	move	a0,zero
    100c:	0c0003b1 	jal	ec4 <lcd_cmd>
    1010:	00000000 	nop
    1014:	2404005f 	li	a0,95
    1018:	0c0003b1 	jal	ec4 <lcd_cmd>
    101c:	00000000 	nop
    1020:	24040075 	li	a0,117
    1024:	0c0003b1 	jal	ec4 <lcd_cmd>
    1028:	00000000 	nop
    102c:	00002025 	move	a0,zero
    1030:	0c0003b1 	jal	ec4 <lcd_cmd>
    1034:	00000000 	nop
    1038:	2404003f 	li	a0,63
    103c:	0c0003b1 	jal	ec4 <lcd_cmd>
    1040:	00000000 	nop
    1044:	240400af 	li	a0,175
    1048:	0c0003b1 	jal	ec4 <lcd_cmd>
    104c:	00000000 	nop
    1050:	00000000 	nop
    1054:	03c0e825 	move	sp,s8
    1058:	8fbf0014 	lw	ra,20(sp)
    105c:	8fbe0010 	lw	s8,16(sp)
    1060:	27bd0018 	addiu	sp,sp,24
    1064:	03e00008 	jr	ra
    1068:	00000000 	nop

0000106c <lcd_set_vbuf_pixel>:
    106c:	27bdfff8 	addiu	sp,sp,-8
    1070:	afbe0004 	sw	s8,4(sp)
    1074:	03a0f025 	move	s8,sp
    1078:	afc40008 	sw	a0,8(s8)
    107c:	afc5000c 	sw	a1,12(s8)
    1080:	afc60010 	sw	a2,16(s8)
    1084:	afc70014 	sw	a3,20(s8)
    1088:	8fc20010 	lw	v0,16(s8)
    108c:	00000000 	nop
    1090:	00021143 	sra	v0,v0,0x5
    1094:	afc20010 	sw	v0,16(s8)
    1098:	8fc20014 	lw	v0,20(s8)
    109c:	00000000 	nop
    10a0:	00021143 	sra	v0,v0,0x5
    10a4:	afc20014 	sw	v0,20(s8)
    10a8:	8fc20018 	lw	v0,24(s8)
    10ac:	00000000 	nop
    10b0:	00021183 	sra	v0,v0,0x6
    10b4:	afc20018 	sw	v0,24(s8)
    10b8:	8fc20010 	lw	v0,16(s8)
    10bc:	00000000 	nop
    10c0:	00021140 	sll	v0,v0,0x5
    10c4:	00021e00 	sll	v1,v0,0x18
    10c8:	00031e03 	sra	v1,v1,0x18
    10cc:	8fc20014 	lw	v0,20(s8)
    10d0:	00000000 	nop
    10d4:	00021080 	sll	v0,v0,0x2
    10d8:	00021600 	sll	v0,v0,0x18
    10dc:	00021603 	sra	v0,v0,0x18
    10e0:	00621025 	or	v0,v1,v0
    10e4:	00021e00 	sll	v1,v0,0x18
    10e8:	00031e03 	sra	v1,v1,0x18
    10ec:	8fc20018 	lw	v0,24(s8)
    10f0:	00000000 	nop
    10f4:	00021600 	sll	v0,v0,0x18
    10f8:	00021603 	sra	v0,v0,0x18
    10fc:	00621025 	or	v0,v1,v0
    1100:	00021600 	sll	v0,v0,0x18
    1104:	00021603 	sra	v0,v0,0x18
    1108:	304400ff 	andi	a0,v0,0xff
    110c:	3c050000 	lui	a1,0x0
    1110:	8fc30008 	lw	v1,8(s8)
    1114:	00000000 	nop
    1118:	00601025 	move	v0,v1
    111c:	00021040 	sll	v0,v0,0x1
    1120:	00431021 	addu	v0,v0,v1
    1124:	00021140 	sll	v0,v0,0x5
    1128:	24a320bc 	addiu	v1,a1,8380
    112c:	00431821 	addu	v1,v0,v1
    1130:	8fc2000c 	lw	v0,12(s8)
    1134:	00000000 	nop
    1138:	00621021 	addu	v0,v1,v0
    113c:	a0440000 	sb	a0,0(v0)
    1140:	00000000 	nop
    1144:	03c0e825 	move	sp,s8
    1148:	8fbe0004 	lw	s8,4(sp)
    114c:	27bd0008 	addiu	sp,sp,8
    1150:	03e00008 	jr	ra
    1154:	00000000 	nop

00001158 <lcd_clear_vbuf>:
    1158:	27bdfff0 	addiu	sp,sp,-16
    115c:	afbe000c 	sw	s8,12(sp)
    1160:	03a0f025 	move	s8,sp
    1164:	afc00000 	sw	zero,0(s8)
    1168:	1000001e 	b	11e4 <lcd_clear_vbuf+0x8c>
    116c:	00000000 	nop
    1170:	afc00004 	sw	zero,4(s8)
    1174:	10000012 	b	11c0 <lcd_clear_vbuf+0x68>
    1178:	00000000 	nop
    117c:	3c040000 	lui	a0,0x0
    1180:	8fc30000 	lw	v1,0(s8)
    1184:	00000000 	nop
    1188:	00601025 	move	v0,v1
    118c:	00021040 	sll	v0,v0,0x1
    1190:	00431021 	addu	v0,v0,v1
    1194:	00021140 	sll	v0,v0,0x5
    1198:	248320bc 	addiu	v1,a0,8380
    119c:	00431821 	addu	v1,v0,v1
    11a0:	8fc20004 	lw	v0,4(s8)
    11a4:	00000000 	nop
    11a8:	00621021 	addu	v0,v1,v0
    11ac:	a0400000 	sb	zero,0(v0)
    11b0:	8fc20004 	lw	v0,4(s8)
    11b4:	00000000 	nop
    11b8:	24420001 	addiu	v0,v0,1
    11bc:	afc20004 	sw	v0,4(s8)
    11c0:	8fc20004 	lw	v0,4(s8)
    11c4:	00000000 	nop
    11c8:	28420060 	slti	v0,v0,96
    11cc:	1440ffeb 	bnez	v0,117c <lcd_clear_vbuf+0x24>
    11d0:	00000000 	nop
    11d4:	8fc20000 	lw	v0,0(s8)
    11d8:	00000000 	nop
    11dc:	24420001 	addiu	v0,v0,1
    11e0:	afc20000 	sw	v0,0(s8)
    11e4:	8fc20000 	lw	v0,0(s8)
    11e8:	00000000 	nop
    11ec:	28420040 	slti	v0,v0,64
    11f0:	1440ffdf 	bnez	v0,1170 <lcd_clear_vbuf+0x18>
    11f4:	00000000 	nop
    11f8:	00000000 	nop
    11fc:	03c0e825 	move	sp,s8
    1200:	8fbe000c 	lw	s8,12(sp)
    1204:	27bd0010 	addiu	sp,sp,16
    1208:	03e00008 	jr	ra
    120c:	00000000 	nop

00001210 <lcd_sync_vbuf>:
    1210:	27bdffe0 	addiu	sp,sp,-32
    1214:	afbf001c 	sw	ra,28(sp)
    1218:	afbe0018 	sw	s8,24(sp)
    121c:	03a0f025 	move	s8,sp
    1220:	afc00010 	sw	zero,16(s8)
    1224:	10000022 	b	12b0 <lcd_sync_vbuf+0xa0>
    1228:	00000000 	nop
    122c:	afc00014 	sw	zero,20(s8)
    1230:	10000016 	b	128c <lcd_sync_vbuf+0x7c>
    1234:	00000000 	nop
    1238:	3c040000 	lui	a0,0x0
    123c:	8fc30010 	lw	v1,16(s8)
    1240:	00000000 	nop
    1244:	00601025 	move	v0,v1
    1248:	00021040 	sll	v0,v0,0x1
    124c:	00431021 	addu	v0,v0,v1
    1250:	00021140 	sll	v0,v0,0x5
    1254:	248320bc 	addiu	v1,a0,8380
    1258:	00431821 	addu	v1,v0,v1
    125c:	8fc20014 	lw	v0,20(s8)
    1260:	00000000 	nop
    1264:	00621021 	addu	v0,v1,v0
    1268:	90420000 	lbu	v0,0(v0)
    126c:	00000000 	nop
    1270:	00402025 	move	a0,v0
    1274:	0c0003c7 	jal	f1c <lcd_data>
    1278:	00000000 	nop
    127c:	8fc20014 	lw	v0,20(s8)
    1280:	00000000 	nop
    1284:	24420001 	addiu	v0,v0,1
    1288:	afc20014 	sw	v0,20(s8)
    128c:	8fc20014 	lw	v0,20(s8)
    1290:	00000000 	nop
    1294:	28420060 	slti	v0,v0,96
    1298:	1440ffe7 	bnez	v0,1238 <lcd_sync_vbuf+0x28>
    129c:	00000000 	nop
    12a0:	8fc20010 	lw	v0,16(s8)
    12a4:	00000000 	nop
    12a8:	24420001 	addiu	v0,v0,1
    12ac:	afc20010 	sw	v0,16(s8)
    12b0:	8fc20010 	lw	v0,16(s8)
    12b4:	00000000 	nop
    12b8:	28420040 	slti	v0,v0,64
    12bc:	1440ffdb 	bnez	v0,122c <lcd_sync_vbuf+0x1c>
    12c0:	00000000 	nop
    12c4:	00000000 	nop
    12c8:	03c0e825 	move	sp,s8
    12cc:	8fbf001c 	lw	ra,28(sp)
    12d0:	8fbe0018 	lw	s8,24(sp)
    12d4:	27bd0020 	addiu	sp,sp,32
    12d8:	03e00008 	jr	ra
    12dc:	00000000 	nop

000012e0 <lcd_putc>:
    12e0:	27bdffd8 	addiu	sp,sp,-40
    12e4:	afbf0024 	sw	ra,36(sp)
    12e8:	afbe0020 	sw	s8,32(sp)
    12ec:	03a0f025 	move	s8,sp
    12f0:	afc40028 	sw	a0,40(s8)
    12f4:	afc5002c 	sw	a1,44(s8)
    12f8:	afc60030 	sw	a2,48(s8)
    12fc:	afc00018 	sw	zero,24(s8)
    1300:	10000037 	b	13e0 <lcd_putc+0x100>
    1304:	00000000 	nop
    1308:	afc0001c 	sw	zero,28(s8)
    130c:	1000002b 	b	13bc <lcd_putc+0xdc>
    1310:	00000000 	nop
    1314:	8fc20030 	lw	v0,48(s8)
    1318:	00000000 	nop
    131c:	2442ffe0 	addiu	v0,v0,-32
    1320:	000218c0 	sll	v1,v0,0x3
    1324:	8fc2001c 	lw	v0,28(s8)
    1328:	00000000 	nop
    132c:	00621821 	addu	v1,v1,v0
    1330:	3c020000 	lui	v0,0x0
    1334:	24421ca4 	addiu	v0,v0,7332
    1338:	00621021 	addu	v0,v1,v0
    133c:	90420000 	lbu	v0,0(v0)
    1340:	00000000 	nop
    1344:	00401825 	move	v1,v0
    1348:	8fc20018 	lw	v0,24(s8)
    134c:	00000000 	nop
    1350:	00431007 	srav	v0,v1,v0
    1354:	30420001 	andi	v0,v0,0x1
    1358:	10400014 	beqz	v0,13ac <lcd_putc+0xcc>
    135c:	00000000 	nop
    1360:	8fc20028 	lw	v0,40(s8)
    1364:	00000000 	nop
    1368:	000218c0 	sll	v1,v0,0x3
    136c:	8fc20018 	lw	v0,24(s8)
    1370:	00000000 	nop
    1374:	00622021 	addu	a0,v1,v0
    1378:	8fc2002c 	lw	v0,44(s8)
    137c:	00000000 	nop
    1380:	000218c0 	sll	v1,v0,0x3
    1384:	8fc2001c 	lw	v0,28(s8)
    1388:	00000000 	nop
    138c:	00621821 	addu	v1,v1,v0
    1390:	240200b4 	li	v0,180
    1394:	afa20010 	sw	v0,16(sp)
    1398:	240700ff 	li	a3,255
    139c:	00003025 	move	a2,zero
    13a0:	00602825 	move	a1,v1
    13a4:	0c00041b 	jal	106c <lcd_set_vbuf_pixel>
    13a8:	00000000 	nop
    13ac:	8fc2001c 	lw	v0,28(s8)
    13b0:	00000000 	nop
    13b4:	24420001 	addiu	v0,v0,1
    13b8:	afc2001c 	sw	v0,28(s8)
    13bc:	8fc2001c 	lw	v0,28(s8)
    13c0:	00000000 	nop
    13c4:	28420008 	slti	v0,v0,8
    13c8:	1440ffd2 	bnez	v0,1314 <lcd_putc+0x34>
    13cc:	00000000 	nop
    13d0:	8fc20018 	lw	v0,24(s8)
    13d4:	00000000 	nop
    13d8:	24420001 	addiu	v0,v0,1
    13dc:	afc20018 	sw	v0,24(s8)
    13e0:	8fc20018 	lw	v0,24(s8)
    13e4:	00000000 	nop
    13e8:	28420008 	slti	v0,v0,8
    13ec:	1440ffc6 	bnez	v0,1308 <lcd_putc+0x28>
    13f0:	00000000 	nop
    13f4:	00000000 	nop
    13f8:	03c0e825 	move	sp,s8
    13fc:	8fbf0024 	lw	ra,36(sp)
    1400:	8fbe0020 	lw	s8,32(sp)
    1404:	27bd0028 	addiu	sp,sp,40
    1408:	03e00008 	jr	ra
    140c:	00000000 	nop

00001410 <lcd_puts>:
    1410:	27bdffe0 	addiu	sp,sp,-32
    1414:	afbf001c 	sw	ra,28(sp)
    1418:	afbe0018 	sw	s8,24(sp)
    141c:	03a0f025 	move	s8,sp
    1420:	afc40020 	sw	a0,32(s8)
    1424:	afc50024 	sw	a1,36(s8)
    1428:	afc60028 	sw	a2,40(s8)
    142c:	afc00010 	sw	zero,16(s8)
    1430:	1000001d 	b	14a8 <lcd_puts+0x98>
    1434:	00000000 	nop
    1438:	8fc20010 	lw	v0,16(s8)
    143c:	8fc30028 	lw	v1,40(s8)
    1440:	00000000 	nop
    1444:	00621021 	addu	v0,v1,v0
    1448:	80420000 	lb	v0,0(v0)
    144c:	00000000 	nop
    1450:	28420020 	slti	v0,v0,32
    1454:	14400023 	bnez	v0,14e4 <lcd_puts+0xd4>
    1458:	00000000 	nop
    145c:	8fc30024 	lw	v1,36(s8)
    1460:	8fc20010 	lw	v0,16(s8)
    1464:	00000000 	nop
    1468:	00622021 	addu	a0,v1,v0
    146c:	8fc20010 	lw	v0,16(s8)
    1470:	8fc30028 	lw	v1,40(s8)
    1474:	00000000 	nop
    1478:	00621021 	addu	v0,v1,v0
    147c:	80420000 	lb	v0,0(v0)
    1480:	00000000 	nop
    1484:	00403025 	move	a2,v0
    1488:	00802825 	move	a1,a0
    148c:	8fc40020 	lw	a0,32(s8)
    1490:	0c0004b8 	jal	12e0 <lcd_putc>
    1494:	00000000 	nop
    1498:	8fc20010 	lw	v0,16(s8)
    149c:	00000000 	nop
    14a0:	24420001 	addiu	v0,v0,1
    14a4:	afc20010 	sw	v0,16(s8)
    14a8:	8fc20010 	lw	v0,16(s8)
    14ac:	00000000 	nop
    14b0:	2842000c 	slti	v0,v0,12
    14b4:	1040000c 	beqz	v0,14e8 <lcd_puts+0xd8>
    14b8:	00000000 	nop
    14bc:	8fc20010 	lw	v0,16(s8)
    14c0:	8fc30028 	lw	v1,40(s8)
    14c4:	00000000 	nop
    14c8:	00621021 	addu	v0,v1,v0
    14cc:	80420000 	lb	v0,0(v0)
    14d0:	00000000 	nop
    14d4:	1440ffd8 	bnez	v0,1438 <lcd_puts+0x28>
    14d8:	00000000 	nop
    14dc:	10000002 	b	14e8 <lcd_puts+0xd8>
    14e0:	00000000 	nop
    14e4:	00000000 	nop
    14e8:	00000000 	nop
    14ec:	03c0e825 	move	sp,s8
    14f0:	8fbf001c 	lw	ra,28(sp)
    14f4:	8fbe0018 	lw	s8,24(sp)
    14f8:	27bd0020 	addiu	sp,sp,32
    14fc:	03e00008 	jr	ra
    1500:	00000000 	nop

00001504 <kypd_scan>:
    1504:	27bdffe0 	addiu	sp,sp,-32
    1508:	afbe001c 	sw	s8,28(sp)
    150c:	03a0f025 	move	s8,sp
    1510:	3402ff14 	li	v0,0xff14
    1514:	afc20010 	sw	v0,16(s8)
    1518:	8fc20010 	lw	v0,16(s8)
    151c:	24030007 	li	v1,7
    1520:	ac430000 	sw	v1,0(v0)
    1524:	afc00000 	sw	zero,0(s8)
    1528:	10000005 	b	1540 <kypd_scan+0x3c>
    152c:	00000000 	nop
    1530:	8fc20000 	lw	v0,0(s8)
    1534:	00000000 	nop
    1538:	24420001 	addiu	v0,v0,1
    153c:	afc20000 	sw	v0,0(s8)
    1540:	8fc20000 	lw	v0,0(s8)
    1544:	00000000 	nop
    1548:	1840fff9 	blez	v0,1530 <kypd_scan+0x2c>
    154c:	00000000 	nop
    1550:	8fc20010 	lw	v0,16(s8)
    1554:	00000000 	nop
    1558:	8c420000 	lw	v0,0(v0)
    155c:	00000000 	nop
    1560:	30420080 	andi	v0,v0,0x80
    1564:	14400004 	bnez	v0,1578 <kypd_scan+0x74>
    1568:	00000000 	nop
    156c:	24020001 	li	v0,1
    1570:	100000c2 	b	187c <kypd_scan+0x378>
    1574:	00000000 	nop
    1578:	8fc20010 	lw	v0,16(s8)
    157c:	00000000 	nop
    1580:	8c420000 	lw	v0,0(v0)
    1584:	00000000 	nop
    1588:	30420040 	andi	v0,v0,0x40
    158c:	14400004 	bnez	v0,15a0 <kypd_scan+0x9c>
    1590:	00000000 	nop
    1594:	24020004 	li	v0,4
    1598:	100000b8 	b	187c <kypd_scan+0x378>
    159c:	00000000 	nop
    15a0:	8fc20010 	lw	v0,16(s8)
    15a4:	00000000 	nop
    15a8:	8c420000 	lw	v0,0(v0)
    15ac:	00000000 	nop
    15b0:	30420020 	andi	v0,v0,0x20
    15b4:	14400004 	bnez	v0,15c8 <kypd_scan+0xc4>
    15b8:	00000000 	nop
    15bc:	24020007 	li	v0,7
    15c0:	100000ae 	b	187c <kypd_scan+0x378>
    15c4:	00000000 	nop
    15c8:	8fc20010 	lw	v0,16(s8)
    15cc:	00000000 	nop
    15d0:	8c420000 	lw	v0,0(v0)
    15d4:	00000000 	nop
    15d8:	30420010 	andi	v0,v0,0x10
    15dc:	14400004 	bnez	v0,15f0 <kypd_scan+0xec>
    15e0:	00000000 	nop
    15e4:	00001025 	move	v0,zero
    15e8:	100000a4 	b	187c <kypd_scan+0x378>
    15ec:	00000000 	nop
    15f0:	8fc20010 	lw	v0,16(s8)
    15f4:	2403000b 	li	v1,11
    15f8:	ac430000 	sw	v1,0(v0)
    15fc:	afc00004 	sw	zero,4(s8)
    1600:	10000005 	b	1618 <kypd_scan+0x114>
    1604:	00000000 	nop
    1608:	8fc20004 	lw	v0,4(s8)
    160c:	00000000 	nop
    1610:	24420001 	addiu	v0,v0,1
    1614:	afc20004 	sw	v0,4(s8)
    1618:	8fc20004 	lw	v0,4(s8)
    161c:	00000000 	nop
    1620:	1840fff9 	blez	v0,1608 <kypd_scan+0x104>
    1624:	00000000 	nop
    1628:	8fc20010 	lw	v0,16(s8)
    162c:	00000000 	nop
    1630:	8c420000 	lw	v0,0(v0)
    1634:	00000000 	nop
    1638:	30420080 	andi	v0,v0,0x80
    163c:	14400004 	bnez	v0,1650 <kypd_scan+0x14c>
    1640:	00000000 	nop
    1644:	24020002 	li	v0,2
    1648:	1000008c 	b	187c <kypd_scan+0x378>
    164c:	00000000 	nop
    1650:	8fc20010 	lw	v0,16(s8)
    1654:	00000000 	nop
    1658:	8c420000 	lw	v0,0(v0)
    165c:	00000000 	nop
    1660:	30420040 	andi	v0,v0,0x40
    1664:	14400004 	bnez	v0,1678 <kypd_scan+0x174>
    1668:	00000000 	nop
    166c:	24020005 	li	v0,5
    1670:	10000082 	b	187c <kypd_scan+0x378>
    1674:	00000000 	nop
    1678:	8fc20010 	lw	v0,16(s8)
    167c:	00000000 	nop
    1680:	8c420000 	lw	v0,0(v0)
    1684:	00000000 	nop
    1688:	30420020 	andi	v0,v0,0x20
    168c:	14400004 	bnez	v0,16a0 <kypd_scan+0x19c>
    1690:	00000000 	nop
    1694:	24020008 	li	v0,8
    1698:	10000078 	b	187c <kypd_scan+0x378>
    169c:	00000000 	nop
    16a0:	8fc20010 	lw	v0,16(s8)
    16a4:	00000000 	nop
    16a8:	8c420000 	lw	v0,0(v0)
    16ac:	00000000 	nop
    16b0:	30420010 	andi	v0,v0,0x10
    16b4:	14400004 	bnez	v0,16c8 <kypd_scan+0x1c4>
    16b8:	00000000 	nop
    16bc:	2402000f 	li	v0,15
    16c0:	1000006e 	b	187c <kypd_scan+0x378>
    16c4:	00000000 	nop
    16c8:	8fc20010 	lw	v0,16(s8)
    16cc:	2403000d 	li	v1,13
    16d0:	ac430000 	sw	v1,0(v0)
    16d4:	afc00008 	sw	zero,8(s8)
    16d8:	10000005 	b	16f0 <kypd_scan+0x1ec>
    16dc:	00000000 	nop
    16e0:	8fc20008 	lw	v0,8(s8)
    16e4:	00000000 	nop
    16e8:	24420001 	addiu	v0,v0,1
    16ec:	afc20008 	sw	v0,8(s8)
    16f0:	8fc20008 	lw	v0,8(s8)
    16f4:	00000000 	nop
    16f8:	1840fff9 	blez	v0,16e0 <kypd_scan+0x1dc>
    16fc:	00000000 	nop
    1700:	8fc20010 	lw	v0,16(s8)
    1704:	00000000 	nop
    1708:	8c420000 	lw	v0,0(v0)
    170c:	00000000 	nop
    1710:	30420080 	andi	v0,v0,0x80
    1714:	14400004 	bnez	v0,1728 <kypd_scan+0x224>
    1718:	00000000 	nop
    171c:	24020003 	li	v0,3
    1720:	10000056 	b	187c <kypd_scan+0x378>
    1724:	00000000 	nop
    1728:	8fc20010 	lw	v0,16(s8)
    172c:	00000000 	nop
    1730:	8c420000 	lw	v0,0(v0)
    1734:	00000000 	nop
    1738:	30420040 	andi	v0,v0,0x40
    173c:	14400004 	bnez	v0,1750 <kypd_scan+0x24c>
    1740:	00000000 	nop
    1744:	24020006 	li	v0,6
    1748:	1000004c 	b	187c <kypd_scan+0x378>
    174c:	00000000 	nop
    1750:	8fc20010 	lw	v0,16(s8)
    1754:	00000000 	nop
    1758:	8c420000 	lw	v0,0(v0)
    175c:	00000000 	nop
    1760:	30420020 	andi	v0,v0,0x20
    1764:	14400004 	bnez	v0,1778 <kypd_scan+0x274>
    1768:	00000000 	nop
    176c:	24020009 	li	v0,9
    1770:	10000042 	b	187c <kypd_scan+0x378>
    1774:	00000000 	nop
    1778:	8fc20010 	lw	v0,16(s8)
    177c:	00000000 	nop
    1780:	8c420000 	lw	v0,0(v0)
    1784:	00000000 	nop
    1788:	30420010 	andi	v0,v0,0x10
    178c:	14400004 	bnez	v0,17a0 <kypd_scan+0x29c>
    1790:	00000000 	nop
    1794:	2402000e 	li	v0,14
    1798:	10000038 	b	187c <kypd_scan+0x378>
    179c:	00000000 	nop
    17a0:	8fc20010 	lw	v0,16(s8)
    17a4:	2403000e 	li	v1,14
    17a8:	ac430000 	sw	v1,0(v0)
    17ac:	afc0000c 	sw	zero,12(s8)
    17b0:	10000005 	b	17c8 <kypd_scan+0x2c4>
    17b4:	00000000 	nop
    17b8:	8fc2000c 	lw	v0,12(s8)
    17bc:	00000000 	nop
    17c0:	24420001 	addiu	v0,v0,1
    17c4:	afc2000c 	sw	v0,12(s8)
    17c8:	8fc2000c 	lw	v0,12(s8)
    17cc:	00000000 	nop
    17d0:	1840fff9 	blez	v0,17b8 <kypd_scan+0x2b4>
    17d4:	00000000 	nop
    17d8:	8fc20010 	lw	v0,16(s8)
    17dc:	00000000 	nop
    17e0:	8c420000 	lw	v0,0(v0)
    17e4:	00000000 	nop
    17e8:	30420080 	andi	v0,v0,0x80
    17ec:	14400004 	bnez	v0,1800 <kypd_scan+0x2fc>
    17f0:	00000000 	nop
    17f4:	2402000a 	li	v0,10
    17f8:	10000020 	b	187c <kypd_scan+0x378>
    17fc:	00000000 	nop
    1800:	8fc20010 	lw	v0,16(s8)
    1804:	00000000 	nop
    1808:	8c420000 	lw	v0,0(v0)
    180c:	00000000 	nop
    1810:	30420040 	andi	v0,v0,0x40
    1814:	14400004 	bnez	v0,1828 <kypd_scan+0x324>
    1818:	00000000 	nop
    181c:	2402000b 	li	v0,11
    1820:	10000016 	b	187c <kypd_scan+0x378>
    1824:	00000000 	nop
    1828:	8fc20010 	lw	v0,16(s8)
    182c:	00000000 	nop
    1830:	8c420000 	lw	v0,0(v0)
    1834:	00000000 	nop
    1838:	30420020 	andi	v0,v0,0x20
    183c:	14400004 	bnez	v0,1850 <kypd_scan+0x34c>
    1840:	00000000 	nop
    1844:	2402000c 	li	v0,12
    1848:	1000000c 	b	187c <kypd_scan+0x378>
    184c:	00000000 	nop
    1850:	8fc20010 	lw	v0,16(s8)
    1854:	00000000 	nop
    1858:	8c420000 	lw	v0,0(v0)
    185c:	00000000 	nop
    1860:	30420010 	andi	v0,v0,0x10
    1864:	14400004 	bnez	v0,1878 <kypd_scan+0x374>
    1868:	00000000 	nop
    186c:	2402000d 	li	v0,13
    1870:	10000002 	b	187c <kypd_scan+0x378>
    1874:	00000000 	nop
    1878:	2402ffff 	li	v0,-1
    187c:	03c0e825 	move	sp,s8
    1880:	8fbe001c 	lw	s8,28(sp)
    1884:	27bd0020 	addiu	sp,sp,32
    1888:	03e00008 	jr	ra
    188c:	00000000 	nop

00001890 <move_cursor>:
    1890:	27bdfff8 	addiu	sp,sp,-8
    1894:	afbe0004 	sw	s8,4(sp)
    1898:	03a0f025 	move	s8,sp
    189c:	afc40008 	sw	a0,8(s8)
    18a0:	8fc30008 	lw	v1,8(s8)
    18a4:	24020008 	li	v0,8
    18a8:	1462000f 	bne	v1,v0,18e8 <move_cursor+0x58>
    18ac:	00000000 	nop
    18b0:	3c020000 	lui	v0,0x0
    18b4:	8c4220a4 	lw	v0,8356(v0)
    18b8:	00000000 	nop
    18bc:	28420005 	slti	v0,v0,5
    18c0:	14400046 	bnez	v0,19dc <move_cursor+0x14c>
    18c4:	00000000 	nop
    18c8:	3c020000 	lui	v0,0x0
    18cc:	8c4220a4 	lw	v0,8356(v0)
    18d0:	00000000 	nop
    18d4:	2443fffb 	addiu	v1,v0,-5
    18d8:	3c020000 	lui	v0,0x0
    18dc:	ac4320a4 	sw	v1,8356(v0)
    18e0:	1000003e 	b	19dc <move_cursor+0x14c>
    18e4:	00000000 	nop
    18e8:	8fc30008 	lw	v1,8(s8)
    18ec:	2402000e 	li	v0,14
    18f0:	14620014 	bne	v1,v0,1944 <move_cursor+0xb4>
    18f4:	00000000 	nop
    18f8:	3c020000 	lui	v0,0x0
    18fc:	8c4320a4 	lw	v1,8356(v0)
    1900:	24020005 	li	v0,5
    1904:	0062001a 	div	zero,v1,v0
    1908:	14400002 	bnez	v0,1914 <move_cursor+0x84>
    190c:	00000000 	nop
    1910:	0007000d 	break	0x7
    1914:	00001010 	mfhi	v0
    1918:	28420004 	slti	v0,v0,4
    191c:	1040002f 	beqz	v0,19dc <move_cursor+0x14c>
    1920:	00000000 	nop
    1924:	3c020000 	lui	v0,0x0
    1928:	8c4220a4 	lw	v0,8356(v0)
    192c:	00000000 	nop
    1930:	24430001 	addiu	v1,v0,1
    1934:	3c020000 	lui	v0,0x0
    1938:	ac4320a4 	sw	v1,8356(v0)
    193c:	10000027 	b	19dc <move_cursor+0x14c>
    1940:	00000000 	nop
    1944:	8fc30008 	lw	v1,8(s8)
    1948:	2402000f 	li	v0,15
    194c:	1462000f 	bne	v1,v0,198c <move_cursor+0xfc>
    1950:	00000000 	nop
    1954:	3c020000 	lui	v0,0x0
    1958:	8c4220a4 	lw	v0,8356(v0)
    195c:	00000000 	nop
    1960:	28420005 	slti	v0,v0,5
    1964:	1040001d 	beqz	v0,19dc <move_cursor+0x14c>
    1968:	00000000 	nop
    196c:	3c020000 	lui	v0,0x0
    1970:	8c4220a4 	lw	v0,8356(v0)
    1974:	00000000 	nop
    1978:	24430005 	addiu	v1,v0,5
    197c:	3c020000 	lui	v0,0x0
    1980:	ac4320a4 	sw	v1,8356(v0)
    1984:	10000015 	b	19dc <move_cursor+0x14c>
    1988:	00000000 	nop
    198c:	8fc20008 	lw	v0,8(s8)
    1990:	00000000 	nop
    1994:	14400011 	bnez	v0,19dc <move_cursor+0x14c>
    1998:	00000000 	nop
    199c:	3c020000 	lui	v0,0x0
    19a0:	8c4320a4 	lw	v1,8356(v0)
    19a4:	24020005 	li	v0,5
    19a8:	0062001a 	div	zero,v1,v0
    19ac:	14400002 	bnez	v0,19b8 <move_cursor+0x128>
    19b0:	00000000 	nop
    19b4:	0007000d 	break	0x7
    19b8:	00001010 	mfhi	v0
    19bc:	18400007 	blez	v0,19dc <move_cursor+0x14c>
    19c0:	00000000 	nop
    19c4:	3c020000 	lui	v0,0x0
    19c8:	8c4220a4 	lw	v0,8356(v0)
    19cc:	00000000 	nop
    19d0:	2443ffff 	addiu	v1,v0,-1
    19d4:	3c020000 	lui	v0,0x0
    19d8:	ac4320a4 	sw	v1,8356(v0)
    19dc:	00000000 	nop
    19e0:	03c0e825 	move	sp,s8
    19e4:	8fbe0004 	lw	s8,4(sp)
    19e8:	27bd0008 	addiu	sp,sp,8
    19ec:	03e00008 	jr	ra
    19f0:	00000000 	nop

000019f4 <my_rand>:
    19f4:	27bdfff8 	addiu	sp,sp,-8
    19f8:	afbe0004 	sw	s8,4(sp)
    19fc:	03a0f025 	move	s8,sp
    1a00:	3c020000 	lui	v0,0x0
    1a04:	8c4320b8 	lw	v1,8376(v0)
    1a08:	00000000 	nop
    1a0c:	00601025 	move	v0,v1
    1a10:	00021040 	sll	v0,v0,0x1
    1a14:	00431021 	addu	v0,v0,v1
    1a18:	00021100 	sll	v0,v0,0x4
    1a1c:	00431023 	subu	v0,v0,v1
    1a20:	000210c0 	sll	v0,v0,0x3
    1a24:	00431021 	addu	v0,v0,v1
    1a28:	000210c0 	sll	v0,v0,0x3
    1a2c:	00431021 	addu	v0,v0,v1
    1a30:	00021100 	sll	v0,v0,0x4
    1a34:	00431823 	subu	v1,v0,v1
    1a38:	3c027fff 	lui	v0,0x7fff
    1a3c:	3442ffff 	ori	v0,v0,0xffff
    1a40:	0062001b 	divu	zero,v1,v0
    1a44:	14400002 	bnez	v0,1a50 <my_rand+0x5c>
    1a48:	00000000 	nop
    1a4c:	0007000d 	break	0x7
    1a50:	00001010 	mfhi	v0
    1a54:	00401825 	move	v1,v0
    1a58:	3c020000 	lui	v0,0x0
    1a5c:	ac4320b8 	sw	v1,8376(v0)
    1a60:	3c020000 	lui	v0,0x0
    1a64:	8c4320b8 	lw	v1,8376(v0)
    1a68:	2402000a 	li	v0,10
    1a6c:	0062001b 	divu	zero,v1,v0
    1a70:	14400002 	bnez	v0,1a7c <my_rand+0x88>
    1a74:	00000000 	nop
    1a78:	0007000d 	break	0x7
    1a7c:	00001010 	mfhi	v0
    1a80:	03c0e825 	move	sp,s8
    1a84:	8fbe0004 	lw	s8,4(sp)
    1a88:	27bd0008 	addiu	sp,sp,8
    1a8c:	03e00008 	jr	ra
    1a90:	00000000 	nop

00001a94 <my_itoa>:
    1a94:	27bdffe0 	addiu	sp,sp,-32
    1a98:	afbe001c 	sw	s8,28(sp)
    1a9c:	03a0f025 	move	s8,sp
    1aa0:	afc40020 	sw	a0,32(s8)
    1aa4:	afc50024 	sw	a1,36(s8)
    1aa8:	afc60028 	sw	a2,40(s8)
    1aac:	8fc20024 	lw	v0,36(s8)
    1ab0:	00000000 	nop
    1ab4:	afc20000 	sw	v0,0(s8)
    1ab8:	8fc20024 	lw	v0,36(s8)
    1abc:	00000000 	nop
    1ac0:	afc20004 	sw	v0,4(s8)
    1ac4:	8fc20020 	lw	v0,32(s8)
    1ac8:	00000000 	nop
    1acc:	0441000f 	bgez	v0,1b0c <my_itoa+0x78>
    1ad0:	00000000 	nop
    1ad4:	8fc30028 	lw	v1,40(s8)
    1ad8:	2402000a 	li	v0,10
    1adc:	1462000b 	bne	v1,v0,1b0c <my_itoa+0x78>
    1ae0:	00000000 	nop
    1ae4:	8fc20000 	lw	v0,0(s8)
    1ae8:	00000000 	nop
    1aec:	24430001 	addiu	v1,v0,1
    1af0:	afc30000 	sw	v1,0(s8)
    1af4:	2403002d 	li	v1,45
    1af8:	a0430000 	sb	v1,0(v0)
    1afc:	8fc20020 	lw	v0,32(s8)
    1b00:	00000000 	nop
    1b04:	00021023 	negu	v0,v0
    1b08:	afc20020 	sw	v0,32(s8)
    1b0c:	8fc20020 	lw	v0,32(s8)
    1b10:	00000000 	nop
    1b14:	afc20008 	sw	v0,8(s8)
    1b18:	8fc30008 	lw	v1,8(s8)
    1b1c:	8fc20028 	lw	v0,40(s8)
    1b20:	00000000 	nop
    1b24:	0062001a 	div	zero,v1,v0
    1b28:	14400002 	bnez	v0,1b34 <my_itoa+0xa0>
    1b2c:	00000000 	nop
    1b30:	0007000d 	break	0x7
    1b34:	00001010 	mfhi	v0
    1b38:	afc2000c 	sw	v0,12(s8)
    1b3c:	8fc2000c 	lw	v0,12(s8)
    1b40:	00000000 	nop
    1b44:	2842000a 	slti	v0,v0,10
    1b48:	1040000a 	beqz	v0,1b74 <my_itoa+0xe0>
    1b4c:	00000000 	nop
    1b50:	8fc2000c 	lw	v0,12(s8)
    1b54:	00000000 	nop
    1b58:	304200ff 	andi	v0,v0,0xff
    1b5c:	24420030 	addiu	v0,v0,48
    1b60:	304200ff 	andi	v0,v0,0xff
    1b64:	00021e00 	sll	v1,v0,0x18
    1b68:	00031e03 	sra	v1,v1,0x18
    1b6c:	10000008 	b	1b90 <my_itoa+0xfc>
    1b70:	00000000 	nop
    1b74:	8fc2000c 	lw	v0,12(s8)
    1b78:	00000000 	nop
    1b7c:	304200ff 	andi	v0,v0,0xff
    1b80:	24420057 	addiu	v0,v0,87
    1b84:	304200ff 	andi	v0,v0,0xff
    1b88:	00021e00 	sll	v1,v0,0x18
    1b8c:	00031e03 	sra	v1,v1,0x18
    1b90:	8fc20000 	lw	v0,0(s8)
    1b94:	00000000 	nop
    1b98:	24440001 	addiu	a0,v0,1
    1b9c:	afc40000 	sw	a0,0(s8)
    1ba0:	a0430000 	sb	v1,0(v0)
    1ba4:	8fc30008 	lw	v1,8(s8)
    1ba8:	8fc20028 	lw	v0,40(s8)
    1bac:	00000000 	nop
    1bb0:	0062001a 	div	zero,v1,v0
    1bb4:	14400002 	bnez	v0,1bc0 <my_itoa+0x12c>
    1bb8:	00000000 	nop
    1bbc:	0007000d 	break	0x7
    1bc0:	00001010 	mfhi	v0
    1bc4:	00001012 	mflo	v0
    1bc8:	afc20008 	sw	v0,8(s8)
    1bcc:	8fc20008 	lw	v0,8(s8)
    1bd0:	00000000 	nop
    1bd4:	1440ffd0 	bnez	v0,1b18 <my_itoa+0x84>
    1bd8:	00000000 	nop
    1bdc:	8fc20000 	lw	v0,0(s8)
    1be0:	00000000 	nop
    1be4:	a0400000 	sb	zero,0(v0)
    1be8:	8fc20024 	lw	v0,36(s8)
    1bec:	00000000 	nop
    1bf0:	80430000 	lb	v1,0(v0)
    1bf4:	2402002d 	li	v0,45
    1bf8:	1462001a 	bne	v1,v0,1c64 <my_itoa+0x1d0>
    1bfc:	00000000 	nop
    1c00:	8fc20004 	lw	v0,4(s8)
    1c04:	00000000 	nop
    1c08:	24420001 	addiu	v0,v0,1
    1c0c:	afc20004 	sw	v0,4(s8)
    1c10:	10000014 	b	1c64 <my_itoa+0x1d0>
    1c14:	00000000 	nop
    1c18:	8fc20000 	lw	v0,0(s8)
    1c1c:	00000000 	nop
    1c20:	90420000 	lbu	v0,0(v0)
    1c24:	00000000 	nop
    1c28:	a3c20010 	sb	v0,16(s8)
    1c2c:	8fc20004 	lw	v0,4(s8)
    1c30:	00000000 	nop
    1c34:	80430000 	lb	v1,0(v0)
    1c38:	8fc20000 	lw	v0,0(s8)
    1c3c:	00000000 	nop
    1c40:	a0430000 	sb	v1,0(v0)
    1c44:	8fc20004 	lw	v0,4(s8)
    1c48:	93c30010 	lbu	v1,16(s8)
    1c4c:	00000000 	nop
    1c50:	a0430000 	sb	v1,0(v0)
    1c54:	8fc20004 	lw	v0,4(s8)
    1c58:	00000000 	nop
    1c5c:	24420001 	addiu	v0,v0,1
    1c60:	afc20004 	sw	v0,4(s8)
    1c64:	8fc20000 	lw	v0,0(s8)
    1c68:	00000000 	nop
    1c6c:	2442ffff 	addiu	v0,v0,-1
    1c70:	afc20000 	sw	v0,0(s8)
    1c74:	8fc30000 	lw	v1,0(s8)
    1c78:	8fc20004 	lw	v0,4(s8)
    1c7c:	00000000 	nop
    1c80:	0043102b 	sltu	v0,v0,v1
    1c84:	1440ffe4 	bnez	v0,1c18 <my_itoa+0x184>
    1c88:	00000000 	nop
    1c8c:	00000000 	nop
    1c90:	03c0e825 	move	sp,s8
    1c94:	8fbe001c 	lw	s8,28(sp)
    1c98:	27bd0020 	addiu	sp,sp,32
    1c9c:	03e00008 	jr	ra
    1ca0:	00000000 	nop

セクション .rodata の逆アセンブル:

00001ca4 <font8x8>:
    1ca4:	00000000 	nop
    1ca8:	00000000 	nop
    1cac:	0000005f 	0x5f
    1cb0:	00000000 	nop
    1cb4:	00000300 	sll	zero,zero,0xc
    1cb8:	03000000 	0x3000000
    1cbc:	643c2664 	0x643c2664
    1cc0:	3c262400 	0x3c262400
    1cc4:	2649497f 	addiu	t1,s2,18815
    1cc8:	49493200 	0x49493200
    1ccc:	42251208 	c0	0x251208
    1cd0:	24522100 	addiu	s2,v0,8448
    1cd4:	20504e55 	addi	s0,v0,20053
    1cd8:	22582800 	addi	t8,s2,10240
    1cdc:	00000003 	sra	zero,zero,0x0
    1ce0:	00000000 	nop
    1ce4:	00001c22 	0x1c22
    1ce8:	41000000 	bc0f	1cec <font8x8+0x48>
    1cec:	00000041 	0x41
    1cf0:	221c0000 	addi	gp,s0,0
    1cf4:	0015150e 	0x15150e
    1cf8:	0e151500 	jal	8545400 <lcd_vbuf+0x8543344>
    1cfc:	0008083e 	0x8083e
    1d00:	08080000 	j	200000 <lcd_vbuf+0x1fdf44>
    1d04:	00000050 	0x50
    1d08:	30000000 	andi	zero,zero,0x0
    1d0c:	00080808 	0x80808
    1d10:	08080000 	j	200000 <lcd_vbuf+0x1fdf44>
    1d14:	00000040 	ssnop
    1d18:	00000000 	nop
    1d1c:	40201008 	0x40201008
    1d20:	04020100 	0x4020100
    1d24:	003e4141 	0x3e4141
    1d28:	413e0000 	0x413e0000
    1d2c:	0000417f 	0x417f
    1d30:	40000000 	mfc0	zero,c0_index
    1d34:	00426151 	0x426151
    1d38:	496e0000 	0x496e0000
    1d3c:	00224149 	0x224149
    1d40:	49360000 	0x49360000
    1d44:	00181412 	0x181412
    1d48:	7f100000 	0x7f100000
    1d4c:	00274949 	0x274949
    1d50:	49710000 	0x49710000
    1d54:	003c4a49 	0x3c4a49
    1d58:	48700000 	0x48700000
    1d5c:	00432111 	0x432111
    1d60:	0d030000 	jal	40c0000 <lcd_vbuf+0x40bdf44>
    1d64:	00364949 	0x364949
    1d68:	49360000 	0x49360000
    1d6c:	00060949 	0x60949
    1d70:	291e0000 	slti	s8,t0,0
    1d74:	00000012 	mflo	zero
    1d78:	00000000 	nop
    1d7c:	00000052 	0x52
    1d80:	30000000 	andi	zero,zero,0x0
    1d84:	00000814 	0x814
    1d88:	14220000 	bne	at,v0,1d8c <font8x8+0xe8>
    1d8c:	00141414 	0x141414
    1d90:	14141400 	bne	zero,s4,6d94 <lcd_vbuf+0x4cd8>
    1d94:	00002214 	0x2214
    1d98:	14080000 	bne	zero,t0,1d9c <font8x8+0xf8>
    1d9c:	00020159 	0x20159
    1da0:	05020000 	0x5020000
    1da4:	3e415d55 	0x3e415d55
    1da8:	4d512e00 	0x4d512e00
    1dac:	407c4a09 	0x407c4a09
    1db0:	4a7c4000 	c2	0x7c4000
    1db4:	417f4949 	0x417f4949
    1db8:	49493600 	0x49493600
    1dbc:	1c224141 	0x1c224141
    1dc0:	41412200 	0x41412200
    1dc4:	417f4141 	0x417f4141
    1dc8:	41221c00 	0x41221c00
    1dcc:	417f4949 	0x417f4949
    1dd0:	5d416300 	0x5d416300
    1dd4:	417f4909 	0x417f4909
    1dd8:	1d010300 	0x1d010300
    1ddc:	1c224149 	0x1c224149
    1de0:	493a0800 	0x493a0800
    1de4:	417f0808 	0x417f0808
    1de8:	087f4100 	j	1fd0400 <lcd_vbuf+0x1fce344>
    1dec:	0041417f 	0x41417f
    1df0:	41410000 	0x41410000
    1df4:	30404141 	andi	zero,v0,0x4141
    1df8:	3f010100 	0x3f010100
    1dfc:	417f080c 	0x417f080c
    1e00:	12614100 	beq	s3,at,12204 <lcd_vbuf+0x10148>
    1e04:	417f4140 	0x417f4140
    1e08:	40406000 	cfc0	zero,c0_sr
    1e0c:	417f420c 	0x417f420c
    1e10:	427f4100 	c0	0x7f4100
    1e14:	417f420c 	0x417f420c
    1e18:	117f0100 	beq	t3,ra,221c <lcd_vbuf+0x160>
    1e1c:	1c224141 	0x1c224141
    1e20:	41221c00 	0x41221c00
    1e24:	417f4909 	0x417f4909
    1e28:	09090600 	j	4241800 <lcd_vbuf+0x423f744>
    1e2c:	0c122121 	jal	488484 <lcd_vbuf+0x4863c8>
    1e30:	61524c00 	0x61524c00
    1e34:	417f0909 	0x417f0909
    1e38:	19694600 	0x19694600
    1e3c:	66494949 	0x66494949
    1e40:	49493300 	0x49493300
    1e44:	0301417f 	0x301417f
    1e48:	41010300 	bc0t	2a4c <lcd_vbuf+0x990>
    1e4c:	013f4140 	0x13f4140
    1e50:	413f0100 	0x413f0100
    1e54:	010f3140 	0x10f3140
    1e58:	310f0100 	andi	t7,t0,0x100
    1e5c:	011f6114 	0x11f6114
    1e60:	611f0100 	0x611f0100
    1e64:	41413608 	0x41413608
    1e68:	36414100 	ori	at,s2,0x4100
    1e6c:	01034478 	0x1034478
    1e70:	44030100 	0x44030100
    1e74:	43615149 	c0	0x1615149
    1e78:	45436100 	0x45436100
    1e7c:	00007f41 	0x7f41
    1e80:	41000000 	bc0f	1e84 <font8x8+0x1e0>
    1e84:	01020408 	0x1020408
    1e88:	10204000 	beqz	at,11e8c <lcd_vbuf+0xfdd0>
    1e8c:	00004141 	0x4141
    1e90:	7f000000 	0x7f000000
    1e94:	00040201 	0x40201
    1e98:	01020400 	0x1020400
    1e9c:	00404040 	0x404040
    1ea0:	40404000 	cfc0	zero,c0_badvaddr
    1ea4:	00010200 	sll	zero,at,0x8
    1ea8:	00000000 	nop
    1eac:	00344a4a 	0x344a4a
    1eb0:	4a3c4000 	c2	0x3c4000
    1eb4:	00413f48 	0x413f48
    1eb8:	48483000 	cfc2	t0,$6
    1ebc:	003c4242 	0x3c4242
    1ec0:	42240000 	c0	0x240000
    1ec4:	00304848 	0x304848
    1ec8:	493f4000 	0x493f4000
    1ecc:	003c4a4a 	0x3c4a4a
    1ed0:	4a2c0000 	c2	0x2c0000
    1ed4:	0000487e 	0x487e
    1ed8:	49090000 	0x49090000
    1edc:	00264949 	0x264949
    1ee0:	493f0100 	0x493f0100
    1ee4:	417f4804 	0x417f4804
    1ee8:	44784000 	0x44784000
    1eec:	0000447d 	0x447d
    1ef0:	40000000 	mfc0	zero,c0_index
    1ef4:	00004044 	0x4044
    1ef8:	3d000000 	0x3d000000
    1efc:	417f1018 	0x417f1018
    1f00:	24424200 	addiu	v0,v0,16896
    1f04:	0040417f 	0x40417f
    1f08:	40400000 	cfc0	zero,c0_index
    1f0c:	427e027c 	c0	0x7e027c
    1f10:	027e4000 	0x27e4000
    1f14:	427e4402 	c0	0x7e4402
    1f18:	427c4000 	c0	0x7c4000
    1f1c:	003c4242 	0x3c4242
    1f20:	423c0000 	c0	0x3c0000
    1f24:	00417f49 	0x417f49
    1f28:	09090600 	j	4241800 <lcd_vbuf+0x423f744>
    1f2c:	00060909 	0x60909
    1f30:	497f4100 	0x497f4100
    1f34:	00427e44 	0x427e44
    1f38:	02020400 	0x2020400
    1f3c:	00644a4a 	0x644a4a
    1f40:	4a360000 	c2	0x360000
    1f44:	00043f44 	0x43f44
    1f48:	44200000 	0x44200000
    1f4c:	00023e40 	sll	a3,v0,0x19
    1f50:	40227e40 	0x40227e40
    1f54:	020e3240 	0x20e3240
    1f58:	320e0200 	andi	t6,s0,0x200
    1f5c:	021e6218 	0x21e6218
    1f60:	621e0200 	0x621e0200
    1f64:	42621408 	c0	0x621408
    1f68:	14624200 	bne	v1,v0,1276c <lcd_vbuf+0x106b0>
    1f6c:	01434538 	0x1434538
    1f70:	05030100 	0x5030100
    1f74:	00466252 	0x466252
    1f78:	4a466200 	c2	0x466200
    1f7c:	00000836 	0x836
    1f80:	41000000 	bc0f	1f84 <font8x8+0x2e0>
    1f84:	0000007f 	0x7f
    1f88:	00000000 	nop
    1f8c:	00000041 	0x41
    1f90:	36080000 	ori	t0,s0,0x0
    1f94:	00180808 	0x180808
    1f98:	10101800 	beq	zero,s0,7f9c <lcd_vbuf+0x5ee0>
    1f9c:	aa55aa55 	swl	s5,-21931(s2)
    1fa0:	aa55aa55 	swl	s5,-21931(s2)
    1fa4:	5f5f5f5f 	0x5f5f5f5f
    1fa8:	5f5f5f5f 	0x5f5f5f5f
    1fac:	5f000000 	0x5f000000
    1fb0:	00000001 	0x1
    1fb4:	00000003 	sra	zero,zero,0x0
    1fb8:	00000003 	sra	zero,zero,0x0
    1fbc:	00000003 	sra	zero,zero,0x0
    1fc0:	00000005 	0x5
    1fc4:	00000003 	sra	zero,zero,0x0
    1fc8:	00000007 	srav	zero,zero,zero
    1fcc:	00000003 	sra	zero,zero,0x0
    1fd0:	00000009 	jalr	zero,zero
    1fd4:	00000003 	sra	zero,zero,0x0
    1fd8:	00000001 	0x1
    1fdc:	00000006 	srlv	zero,zero,zero
    1fe0:	00000003 	sra	zero,zero,0x0
    1fe4:	00000006 	srlv	zero,zero,zero
    1fe8:	00000005 	0x5
    1fec:	00000006 	srlv	zero,zero,zero
    1ff0:	00000007 	srav	zero,zero,zero
    1ff4:	00000006 	srlv	zero,zero,zero
    1ff8:	00000009 	jalr	zero,zero
    1ffc:	00000006 	srlv	zero,zero,zero

セクション .bss の逆アセンブル:

00002000 <state>:
    2000:	00000000 	nop

00002004 <cat_state>:
    2004:	00000000 	nop
    2008:	00000000 	nop
    200c:	00000000 	nop
    2010:	00000000 	nop
    2014:	00000000 	nop
    2018:	00000000 	nop
    201c:	00000000 	nop
    2020:	00000000 	nop
    2024:	00000000 	nop
    2028:	00000000 	nop

0000202c <cat_timer>:
    202c:	00000000 	nop
    2030:	00000000 	nop
    2034:	00000000 	nop
    2038:	00000000 	nop
    203c:	00000000 	nop
    2040:	00000000 	nop
    2044:	00000000 	nop
    2048:	00000000 	nop
    204c:	00000000 	nop
    2050:	00000000 	nop

00002054 <cat_position>:
    2054:	00000000 	nop
    2058:	00000000 	nop
    205c:	00000000 	nop
    2060:	00000000 	nop
    2064:	00000000 	nop
    2068:	00000000 	nop
    206c:	00000000 	nop
    2070:	00000000 	nop
    2074:	00000000 	nop
    2078:	00000000 	nop
    207c:	00000000 	nop
    2080:	00000000 	nop
    2084:	00000000 	nop
    2088:	00000000 	nop
    208c:	00000000 	nop
    2090:	00000000 	nop
    2094:	00000000 	nop
    2098:	00000000 	nop
    209c:	00000000 	nop
    20a0:	00000000 	nop

000020a4 <toy_position>:
    20a4:	00000000 	nop

000020a8 <score>:
    20a8:	00000000 	nop

000020ac <cnt.1453>:
    20ac:	00000000 	nop

000020b0 <spawn_timer.1452>:
    20b0:	00000000 	nop

000020b4 <game_timer>:
    20b4:	00000000 	nop

000020b8 <randNum>:
    20b8:	00000000 	nop

000020bc <lcd_vbuf>:
    20bc:	00000000 	nop
    20c0:	00000000 	nop
    20c4:	00000000 	nop
    20c8:	00000000 	nop
    20cc:	00000000 	nop
    20d0:	00000000 	nop
    20d4:	00000000 	nop
    20d8:	00000000 	nop
    20dc:	00000000 	nop
    20e0:	00000000 	nop
    20e4:	00000000 	nop
    20e8:	00000000 	nop
    20ec:	00000000 	nop
    20f0:	00000000 	nop
    20f4:	00000000 	nop
    20f8:	00000000 	nop
    20fc:	00000000 	nop
    2100:	00000000 	nop
    2104:	00000000 	nop
    2108:	00000000 	nop
    210c:	00000000 	nop
    2110:	00000000 	nop
    2114:	00000000 	nop
    2118:	00000000 	nop
    211c:	00000000 	nop
    2120:	00000000 	nop
    2124:	00000000 	nop
    2128:	00000000 	nop
    212c:	00000000 	nop
    2130:	00000000 	nop
    2134:	00000000 	nop
    2138:	00000000 	nop
    213c:	00000000 	nop
    2140:	00000000 	nop
    2144:	00000000 	nop
    2148:	00000000 	nop
    214c:	00000000 	nop
    2150:	00000000 	nop
    2154:	00000000 	nop
    2158:	00000000 	nop
    215c:	00000000 	nop
    2160:	00000000 	nop
    2164:	00000000 	nop
    2168:	00000000 	nop
    216c:	00000000 	nop
    2170:	00000000 	nop
    2174:	00000000 	nop
    2178:	00000000 	nop
    217c:	00000000 	nop
    2180:	00000000 	nop
    2184:	00000000 	nop
    2188:	00000000 	nop
    218c:	00000000 	nop
    2190:	00000000 	nop
    2194:	00000000 	nop
    2198:	00000000 	nop
    219c:	00000000 	nop
    21a0:	00000000 	nop
    21a4:	00000000 	nop
    21a8:	00000000 	nop
    21ac:	00000000 	nop
    21b0:	00000000 	nop
    21b4:	00000000 	nop
    21b8:	00000000 	nop
    21bc:	00000000 	nop
    21c0:	00000000 	nop
    21c4:	00000000 	nop
    21c8:	00000000 	nop
    21cc:	00000000 	nop
    21d0:	00000000 	nop
    21d4:	00000000 	nop
    21d8:	00000000 	nop
    21dc:	00000000 	nop
    21e0:	00000000 	nop
    21e4:	00000000 	nop
    21e8:	00000000 	nop
    21ec:	00000000 	nop
    21f0:	00000000 	nop
    21f4:	00000000 	nop
    21f8:	00000000 	nop
    21fc:	00000000 	nop
    2200:	00000000 	nop
    2204:	00000000 	nop
    2208:	00000000 	nop
    220c:	00000000 	nop
    2210:	00000000 	nop
    2214:	00000000 	nop
    2218:	00000000 	nop
    221c:	00000000 	nop
    2220:	00000000 	nop
    2224:	00000000 	nop
    2228:	00000000 	nop
    222c:	00000000 	nop
    2230:	00000000 	nop
    2234:	00000000 	nop
    2238:	00000000 	nop
    223c:	00000000 	nop
    2240:	00000000 	nop
    2244:	00000000 	nop
    2248:	00000000 	nop
    224c:	00000000 	nop
    2250:	00000000 	nop
    2254:	00000000 	nop
    2258:	00000000 	nop
    225c:	00000000 	nop
    2260:	00000000 	nop
    2264:	00000000 	nop
    2268:	00000000 	nop
    226c:	00000000 	nop
    2270:	00000000 	nop
    2274:	00000000 	nop
    2278:	00000000 	nop
    227c:	00000000 	nop
    2280:	00000000 	nop
    2284:	00000000 	nop
    2288:	00000000 	nop
    228c:	00000000 	nop
    2290:	00000000 	nop
    2294:	00000000 	nop
    2298:	00000000 	nop
    229c:	00000000 	nop
    22a0:	00000000 	nop
    22a4:	00000000 	nop
    22a8:	00000000 	nop
    22ac:	00000000 	nop
    22b0:	00000000 	nop
    22b4:	00000000 	nop
    22b8:	00000000 	nop
    22bc:	00000000 	nop
    22c0:	00000000 	nop
    22c4:	00000000 	nop
    22c8:	00000000 	nop
    22cc:	00000000 	nop
    22d0:	00000000 	nop
    22d4:	00000000 	nop
    22d8:	00000000 	nop
    22dc:	00000000 	nop
    22e0:	00000000 	nop
    22e4:	00000000 	nop
    22e8:	00000000 	nop
    22ec:	00000000 	nop
    22f0:	00000000 	nop
    22f4:	00000000 	nop
    22f8:	00000000 	nop
    22fc:	00000000 	nop
    2300:	00000000 	nop
    2304:	00000000 	nop
    2308:	00000000 	nop
    230c:	00000000 	nop
    2310:	00000000 	nop
    2314:	00000000 	nop
    2318:	00000000 	nop
    231c:	00000000 	nop
    2320:	00000000 	nop
    2324:	00000000 	nop
    2328:	00000000 	nop
    232c:	00000000 	nop
    2330:	00000000 	nop
    2334:	00000000 	nop
    2338:	00000000 	nop
    233c:	00000000 	nop
    2340:	00000000 	nop
    2344:	00000000 	nop
    2348:	00000000 	nop
    234c:	00000000 	nop
    2350:	00000000 	nop
    2354:	00000000 	nop
    2358:	00000000 	nop
    235c:	00000000 	nop
    2360:	00000000 	nop
    2364:	00000000 	nop
    2368:	00000000 	nop
    236c:	00000000 	nop
    2370:	00000000 	nop
    2374:	00000000 	nop
    2378:	00000000 	nop
    237c:	00000000 	nop
    2380:	00000000 	nop
    2384:	00000000 	nop
    2388:	00000000 	nop
    238c:	00000000 	nop
    2390:	00000000 	nop
    2394:	00000000 	nop
    2398:	00000000 	nop
    239c:	00000000 	nop
    23a0:	00000000 	nop
    23a4:	00000000 	nop
    23a8:	00000000 	nop
    23ac:	00000000 	nop
    23b0:	00000000 	nop
    23b4:	00000000 	nop
    23b8:	00000000 	nop
    23bc:	00000000 	nop
    23c0:	00000000 	nop
    23c4:	00000000 	nop
    23c8:	00000000 	nop
    23cc:	00000000 	nop
    23d0:	00000000 	nop
    23d4:	00000000 	nop
    23d8:	00000000 	nop
    23dc:	00000000 	nop
    23e0:	00000000 	nop
    23e4:	00000000 	nop
    23e8:	00000000 	nop
    23ec:	00000000 	nop
    23f0:	00000000 	nop
    23f4:	00000000 	nop
    23f8:	00000000 	nop
    23fc:	00000000 	nop
    2400:	00000000 	nop
    2404:	00000000 	nop
    2408:	00000000 	nop
    240c:	00000000 	nop
    2410:	00000000 	nop
    2414:	00000000 	nop
    2418:	00000000 	nop
    241c:	00000000 	nop
    2420:	00000000 	nop
    2424:	00000000 	nop
    2428:	00000000 	nop
    242c:	00000000 	nop
    2430:	00000000 	nop
    2434:	00000000 	nop
    2438:	00000000 	nop
    243c:	00000000 	nop
    2440:	00000000 	nop
    2444:	00000000 	nop
    2448:	00000000 	nop
    244c:	00000000 	nop
    2450:	00000000 	nop
    2454:	00000000 	nop
    2458:	00000000 	nop
    245c:	00000000 	nop
    2460:	00000000 	nop
    2464:	00000000 	nop
    2468:	00000000 	nop
    246c:	00000000 	nop
    2470:	00000000 	nop
    2474:	00000000 	nop
    2478:	00000000 	nop
    247c:	00000000 	nop
    2480:	00000000 	nop
    2484:	00000000 	nop
    2488:	00000000 	nop
    248c:	00000000 	nop
    2490:	00000000 	nop
    2494:	00000000 	nop
    2498:	00000000 	nop
    249c:	00000000 	nop
    24a0:	00000000 	nop
    24a4:	00000000 	nop
    24a8:	00000000 	nop
    24ac:	00000000 	nop
    24b0:	00000000 	nop
    24b4:	00000000 	nop
    24b8:	00000000 	nop
    24bc:	00000000 	nop
    24c0:	00000000 	nop
    24c4:	00000000 	nop
    24c8:	00000000 	nop
    24cc:	00000000 	nop
    24d0:	00000000 	nop
    24d4:	00000000 	nop
    24d8:	00000000 	nop
    24dc:	00000000 	nop
    24e0:	00000000 	nop
    24e4:	00000000 	nop
    24e8:	00000000 	nop
    24ec:	00000000 	nop
    24f0:	00000000 	nop
    24f4:	00000000 	nop
    24f8:	00000000 	nop
    24fc:	00000000 	nop
    2500:	00000000 	nop
    2504:	00000000 	nop
    2508:	00000000 	nop
    250c:	00000000 	nop
    2510:	00000000 	nop
    2514:	00000000 	nop
    2518:	00000000 	nop
    251c:	00000000 	nop
    2520:	00000000 	nop
    2524:	00000000 	nop
    2528:	00000000 	nop
    252c:	00000000 	nop
    2530:	00000000 	nop
    2534:	00000000 	nop
    2538:	00000000 	nop
    253c:	00000000 	nop
    2540:	00000000 	nop
    2544:	00000000 	nop
    2548:	00000000 	nop
    254c:	00000000 	nop
    2550:	00000000 	nop
    2554:	00000000 	nop
    2558:	00000000 	nop
    255c:	00000000 	nop
    2560:	00000000 	nop
    2564:	00000000 	nop
    2568:	00000000 	nop
    256c:	00000000 	nop
    2570:	00000000 	nop
    2574:	00000000 	nop
    2578:	00000000 	nop
    257c:	00000000 	nop
    2580:	00000000 	nop
    2584:	00000000 	nop
    2588:	00000000 	nop
    258c:	00000000 	nop
    2590:	00000000 	nop
    2594:	00000000 	nop
    2598:	00000000 	nop
    259c:	00000000 	nop
    25a0:	00000000 	nop
    25a4:	00000000 	nop
    25a8:	00000000 	nop
    25ac:	00000000 	nop
    25b0:	00000000 	nop
    25b4:	00000000 	nop
    25b8:	00000000 	nop
    25bc:	00000000 	nop
    25c0:	00000000 	nop
    25c4:	00000000 	nop
    25c8:	00000000 	nop
    25cc:	00000000 	nop
    25d0:	00000000 	nop
    25d4:	00000000 	nop
    25d8:	00000000 	nop
    25dc:	00000000 	nop
    25e0:	00000000 	nop
    25e4:	00000000 	nop
    25e8:	00000000 	nop
    25ec:	00000000 	nop
    25f0:	00000000 	nop
    25f4:	00000000 	nop
    25f8:	00000000 	nop
    25fc:	00000000 	nop
    2600:	00000000 	nop
    2604:	00000000 	nop
    2608:	00000000 	nop
    260c:	00000000 	nop
    2610:	00000000 	nop
    2614:	00000000 	nop
    2618:	00000000 	nop
    261c:	00000000 	nop
    2620:	00000000 	nop
    2624:	00000000 	nop
    2628:	00000000 	nop
    262c:	00000000 	nop
    2630:	00000000 	nop
    2634:	00000000 	nop
    2638:	00000000 	nop
    263c:	00000000 	nop
    2640:	00000000 	nop
    2644:	00000000 	nop
    2648:	00000000 	nop
    264c:	00000000 	nop
    2650:	00000000 	nop
    2654:	00000000 	nop
    2658:	00000000 	nop
    265c:	00000000 	nop
    2660:	00000000 	nop
    2664:	00000000 	nop
    2668:	00000000 	nop
    266c:	00000000 	nop
    2670:	00000000 	nop
    2674:	00000000 	nop
    2678:	00000000 	nop
    267c:	00000000 	nop
    2680:	00000000 	nop
    2684:	00000000 	nop
    2688:	00000000 	nop
    268c:	00000000 	nop
    2690:	00000000 	nop
    2694:	00000000 	nop
    2698:	00000000 	nop
    269c:	00000000 	nop
    26a0:	00000000 	nop
    26a4:	00000000 	nop
    26a8:	00000000 	nop
    26ac:	00000000 	nop
    26b0:	00000000 	nop
    26b4:	00000000 	nop
    26b8:	00000000 	nop
    26bc:	00000000 	nop
    26c0:	00000000 	nop
    26c4:	00000000 	nop
    26c8:	00000000 	nop
    26cc:	00000000 	nop
    26d0:	00000000 	nop
    26d4:	00000000 	nop
    26d8:	00000000 	nop
    26dc:	00000000 	nop
    26e0:	00000000 	nop
    26e4:	00000000 	nop
    26e8:	00000000 	nop
    26ec:	00000000 	nop
    26f0:	00000000 	nop
    26f4:	00000000 	nop
    26f8:	00000000 	nop
    26fc:	00000000 	nop
    2700:	00000000 	nop
    2704:	00000000 	nop
    2708:	00000000 	nop
    270c:	00000000 	nop
    2710:	00000000 	nop
    2714:	00000000 	nop
    2718:	00000000 	nop
    271c:	00000000 	nop
    2720:	00000000 	nop
    2724:	00000000 	nop
    2728:	00000000 	nop
    272c:	00000000 	nop
    2730:	00000000 	nop
    2734:	00000000 	nop
    2738:	00000000 	nop
    273c:	00000000 	nop
    2740:	00000000 	nop
    2744:	00000000 	nop
    2748:	00000000 	nop
    274c:	00000000 	nop
    2750:	00000000 	nop
    2754:	00000000 	nop
    2758:	00000000 	nop
    275c:	00000000 	nop
    2760:	00000000 	nop
    2764:	00000000 	nop
    2768:	00000000 	nop
    276c:	00000000 	nop
    2770:	00000000 	nop
    2774:	00000000 	nop
    2778:	00000000 	nop
    277c:	00000000 	nop
    2780:	00000000 	nop
    2784:	00000000 	nop
    2788:	00000000 	nop
    278c:	00000000 	nop
    2790:	00000000 	nop
    2794:	00000000 	nop
    2798:	00000000 	nop
    279c:	00000000 	nop
    27a0:	00000000 	nop
    27a4:	00000000 	nop
    27a8:	00000000 	nop
    27ac:	00000000 	nop
    27b0:	00000000 	nop
    27b4:	00000000 	nop
    27b8:	00000000 	nop
    27bc:	00000000 	nop
    27c0:	00000000 	nop
    27c4:	00000000 	nop
    27c8:	00000000 	nop
    27cc:	00000000 	nop
    27d0:	00000000 	nop
    27d4:	00000000 	nop
    27d8:	00000000 	nop
    27dc:	00000000 	nop
    27e0:	00000000 	nop
    27e4:	00000000 	nop
    27e8:	00000000 	nop
    27ec:	00000000 	nop
    27f0:	00000000 	nop
    27f4:	00000000 	nop
    27f8:	00000000 	nop
    27fc:	00000000 	nop
    2800:	00000000 	nop
    2804:	00000000 	nop
    2808:	00000000 	nop
    280c:	00000000 	nop
    2810:	00000000 	nop
    2814:	00000000 	nop
    2818:	00000000 	nop
    281c:	00000000 	nop
    2820:	00000000 	nop
    2824:	00000000 	nop
    2828:	00000000 	nop
    282c:	00000000 	nop
    2830:	00000000 	nop
    2834:	00000000 	nop
    2838:	00000000 	nop
    283c:	00000000 	nop
    2840:	00000000 	nop
    2844:	00000000 	nop
    2848:	00000000 	nop
    284c:	00000000 	nop
    2850:	00000000 	nop
    2854:	00000000 	nop
    2858:	00000000 	nop
    285c:	00000000 	nop
    2860:	00000000 	nop
    2864:	00000000 	nop
    2868:	00000000 	nop
    286c:	00000000 	nop
    2870:	00000000 	nop
    2874:	00000000 	nop
    2878:	00000000 	nop
    287c:	00000000 	nop
    2880:	00000000 	nop
    2884:	00000000 	nop
    2888:	00000000 	nop
    288c:	00000000 	nop
    2890:	00000000 	nop
    2894:	00000000 	nop
    2898:	00000000 	nop
    289c:	00000000 	nop
    28a0:	00000000 	nop
    28a4:	00000000 	nop
    28a8:	00000000 	nop
    28ac:	00000000 	nop
    28b0:	00000000 	nop
    28b4:	00000000 	nop
    28b8:	00000000 	nop
    28bc:	00000000 	nop
    28c0:	00000000 	nop
    28c4:	00000000 	nop
    28c8:	00000000 	nop
    28cc:	00000000 	nop
    28d0:	00000000 	nop
    28d4:	00000000 	nop
    28d8:	00000000 	nop
    28dc:	00000000 	nop
    28e0:	00000000 	nop
    28e4:	00000000 	nop
    28e8:	00000000 	nop
    28ec:	00000000 	nop
    28f0:	00000000 	nop
    28f4:	00000000 	nop
    28f8:	00000000 	nop
    28fc:	00000000 	nop
    2900:	00000000 	nop
    2904:	00000000 	nop
    2908:	00000000 	nop
    290c:	00000000 	nop
    2910:	00000000 	nop
    2914:	00000000 	nop
    2918:	00000000 	nop
    291c:	00000000 	nop
    2920:	00000000 	nop
    2924:	00000000 	nop
    2928:	00000000 	nop
    292c:	00000000 	nop
    2930:	00000000 	nop
    2934:	00000000 	nop
    2938:	00000000 	nop
    293c:	00000000 	nop
    2940:	00000000 	nop
    2944:	00000000 	nop
    2948:	00000000 	nop
    294c:	00000000 	nop
    2950:	00000000 	nop
    2954:	00000000 	nop
    2958:	00000000 	nop
    295c:	00000000 	nop
    2960:	00000000 	nop
    2964:	00000000 	nop
    2968:	00000000 	nop
    296c:	00000000 	nop
    2970:	00000000 	nop
    2974:	00000000 	nop
    2978:	00000000 	nop
    297c:	00000000 	nop
    2980:	00000000 	nop
    2984:	00000000 	nop
    2988:	00000000 	nop
    298c:	00000000 	nop
    2990:	00000000 	nop
    2994:	00000000 	nop
    2998:	00000000 	nop
    299c:	00000000 	nop
    29a0:	00000000 	nop
    29a4:	00000000 	nop
    29a8:	00000000 	nop
    29ac:	00000000 	nop
    29b0:	00000000 	nop
    29b4:	00000000 	nop
    29b8:	00000000 	nop
    29bc:	00000000 	nop
    29c0:	00000000 	nop
    29c4:	00000000 	nop
    29c8:	00000000 	nop
    29cc:	00000000 	nop
    29d0:	00000000 	nop
    29d4:	00000000 	nop
    29d8:	00000000 	nop
    29dc:	00000000 	nop
    29e0:	00000000 	nop
    29e4:	00000000 	nop
    29e8:	00000000 	nop
    29ec:	00000000 	nop
    29f0:	00000000 	nop
    29f4:	00000000 	nop
    29f8:	00000000 	nop
    29fc:	00000000 	nop
    2a00:	00000000 	nop
    2a04:	00000000 	nop
    2a08:	00000000 	nop
    2a0c:	00000000 	nop
    2a10:	00000000 	nop
    2a14:	00000000 	nop
    2a18:	00000000 	nop
    2a1c:	00000000 	nop
    2a20:	00000000 	nop
    2a24:	00000000 	nop
    2a28:	00000000 	nop
    2a2c:	00000000 	nop
    2a30:	00000000 	nop
    2a34:	00000000 	nop
    2a38:	00000000 	nop
    2a3c:	00000000 	nop
    2a40:	00000000 	nop
    2a44:	00000000 	nop
    2a48:	00000000 	nop
    2a4c:	00000000 	nop
    2a50:	00000000 	nop
    2a54:	00000000 	nop
    2a58:	00000000 	nop
    2a5c:	00000000 	nop
    2a60:	00000000 	nop
    2a64:	00000000 	nop
    2a68:	00000000 	nop
    2a6c:	00000000 	nop
    2a70:	00000000 	nop
    2a74:	00000000 	nop
    2a78:	00000000 	nop
    2a7c:	00000000 	nop
    2a80:	00000000 	nop
    2a84:	00000000 	nop
    2a88:	00000000 	nop
    2a8c:	00000000 	nop
    2a90:	00000000 	nop
    2a94:	00000000 	nop
    2a98:	00000000 	nop
    2a9c:	00000000 	nop
    2aa0:	00000000 	nop
    2aa4:	00000000 	nop
    2aa8:	00000000 	nop
    2aac:	00000000 	nop
    2ab0:	00000000 	nop
    2ab4:	00000000 	nop
    2ab8:	00000000 	nop
    2abc:	00000000 	nop
    2ac0:	00000000 	nop
    2ac4:	00000000 	nop
    2ac8:	00000000 	nop
    2acc:	00000000 	nop
    2ad0:	00000000 	nop
    2ad4:	00000000 	nop
    2ad8:	00000000 	nop
    2adc:	00000000 	nop
    2ae0:	00000000 	nop
    2ae4:	00000000 	nop
    2ae8:	00000000 	nop
    2aec:	00000000 	nop
    2af0:	00000000 	nop
    2af4:	00000000 	nop
    2af8:	00000000 	nop
    2afc:	00000000 	nop
    2b00:	00000000 	nop
    2b04:	00000000 	nop
    2b08:	00000000 	nop
    2b0c:	00000000 	nop
    2b10:	00000000 	nop
    2b14:	00000000 	nop
    2b18:	00000000 	nop
    2b1c:	00000000 	nop
    2b20:	00000000 	nop
    2b24:	00000000 	nop
    2b28:	00000000 	nop
    2b2c:	00000000 	nop
    2b30:	00000000 	nop
    2b34:	00000000 	nop
    2b38:	00000000 	nop
    2b3c:	00000000 	nop
    2b40:	00000000 	nop
    2b44:	00000000 	nop
    2b48:	00000000 	nop
    2b4c:	00000000 	nop
    2b50:	00000000 	nop
    2b54:	00000000 	nop
    2b58:	00000000 	nop
    2b5c:	00000000 	nop
    2b60:	00000000 	nop
    2b64:	00000000 	nop
    2b68:	00000000 	nop
    2b6c:	00000000 	nop
    2b70:	00000000 	nop
    2b74:	00000000 	nop
    2b78:	00000000 	nop
    2b7c:	00000000 	nop
    2b80:	00000000 	nop
    2b84:	00000000 	nop
    2b88:	00000000 	nop
    2b8c:	00000000 	nop
    2b90:	00000000 	nop
    2b94:	00000000 	nop
    2b98:	00000000 	nop
    2b9c:	00000000 	nop
    2ba0:	00000000 	nop
    2ba4:	00000000 	nop
    2ba8:	00000000 	nop
    2bac:	00000000 	nop
    2bb0:	00000000 	nop
    2bb4:	00000000 	nop
    2bb8:	00000000 	nop
    2bbc:	00000000 	nop
    2bc0:	00000000 	nop
    2bc4:	00000000 	nop
    2bc8:	00000000 	nop
    2bcc:	00000000 	nop
    2bd0:	00000000 	nop
    2bd4:	00000000 	nop
    2bd8:	00000000 	nop
    2bdc:	00000000 	nop
    2be0:	00000000 	nop
    2be4:	00000000 	nop
    2be8:	00000000 	nop
    2bec:	00000000 	nop
    2bf0:	00000000 	nop
    2bf4:	00000000 	nop
    2bf8:	00000000 	nop
    2bfc:	00000000 	nop
    2c00:	00000000 	nop
    2c04:	00000000 	nop
    2c08:	00000000 	nop
    2c0c:	00000000 	nop
    2c10:	00000000 	nop
    2c14:	00000000 	nop
    2c18:	00000000 	nop
    2c1c:	00000000 	nop
    2c20:	00000000 	nop
    2c24:	00000000 	nop
    2c28:	00000000 	nop
    2c2c:	00000000 	nop
    2c30:	00000000 	nop
    2c34:	00000000 	nop
    2c38:	00000000 	nop
    2c3c:	00000000 	nop
    2c40:	00000000 	nop
    2c44:	00000000 	nop
    2c48:	00000000 	nop
    2c4c:	00000000 	nop
    2c50:	00000000 	nop
    2c54:	00000000 	nop
    2c58:	00000000 	nop
    2c5c:	00000000 	nop
    2c60:	00000000 	nop
    2c64:	00000000 	nop
    2c68:	00000000 	nop
    2c6c:	00000000 	nop
    2c70:	00000000 	nop
    2c74:	00000000 	nop
    2c78:	00000000 	nop
    2c7c:	00000000 	nop
    2c80:	00000000 	nop
    2c84:	00000000 	nop
    2c88:	00000000 	nop
    2c8c:	00000000 	nop
    2c90:	00000000 	nop
    2c94:	00000000 	nop
    2c98:	00000000 	nop
    2c9c:	00000000 	nop
    2ca0:	00000000 	nop
    2ca4:	00000000 	nop
    2ca8:	00000000 	nop
    2cac:	00000000 	nop
    2cb0:	00000000 	nop
    2cb4:	00000000 	nop
    2cb8:	00000000 	nop
    2cbc:	00000000 	nop
    2cc0:	00000000 	nop
    2cc4:	00000000 	nop
    2cc8:	00000000 	nop
    2ccc:	00000000 	nop
    2cd0:	00000000 	nop
    2cd4:	00000000 	nop
    2cd8:	00000000 	nop
    2cdc:	00000000 	nop
    2ce0:	00000000 	nop
    2ce4:	00000000 	nop
    2ce8:	00000000 	nop
    2cec:	00000000 	nop
    2cf0:	00000000 	nop
    2cf4:	00000000 	nop
    2cf8:	00000000 	nop
    2cfc:	00000000 	nop
    2d00:	00000000 	nop
    2d04:	00000000 	nop
    2d08:	00000000 	nop
    2d0c:	00000000 	nop
    2d10:	00000000 	nop
    2d14:	00000000 	nop
    2d18:	00000000 	nop
    2d1c:	00000000 	nop
    2d20:	00000000 	nop
    2d24:	00000000 	nop
    2d28:	00000000 	nop
    2d2c:	00000000 	nop
    2d30:	00000000 	nop
    2d34:	00000000 	nop
    2d38:	00000000 	nop
    2d3c:	00000000 	nop
    2d40:	00000000 	nop
    2d44:	00000000 	nop
    2d48:	00000000 	nop
    2d4c:	00000000 	nop
    2d50:	00000000 	nop
    2d54:	00000000 	nop
    2d58:	00000000 	nop
    2d5c:	00000000 	nop
    2d60:	00000000 	nop
    2d64:	00000000 	nop
    2d68:	00000000 	nop
    2d6c:	00000000 	nop
    2d70:	00000000 	nop
    2d74:	00000000 	nop
    2d78:	00000000 	nop
    2d7c:	00000000 	nop
    2d80:	00000000 	nop
    2d84:	00000000 	nop
    2d88:	00000000 	nop
    2d8c:	00000000 	nop
    2d90:	00000000 	nop
    2d94:	00000000 	nop
    2d98:	00000000 	nop
    2d9c:	00000000 	nop
    2da0:	00000000 	nop
    2da4:	00000000 	nop
    2da8:	00000000 	nop
    2dac:	00000000 	nop
    2db0:	00000000 	nop
    2db4:	00000000 	nop
    2db8:	00000000 	nop
    2dbc:	00000000 	nop
    2dc0:	00000000 	nop
    2dc4:	00000000 	nop
    2dc8:	00000000 	nop
    2dcc:	00000000 	nop
    2dd0:	00000000 	nop
    2dd4:	00000000 	nop
    2dd8:	00000000 	nop
    2ddc:	00000000 	nop
    2de0:	00000000 	nop
    2de4:	00000000 	nop
    2de8:	00000000 	nop
    2dec:	00000000 	nop
    2df0:	00000000 	nop
    2df4:	00000000 	nop
    2df8:	00000000 	nop
    2dfc:	00000000 	nop
    2e00:	00000000 	nop
    2e04:	00000000 	nop
    2e08:	00000000 	nop
    2e0c:	00000000 	nop
    2e10:	00000000 	nop
    2e14:	00000000 	nop
    2e18:	00000000 	nop
    2e1c:	00000000 	nop
    2e20:	00000000 	nop
    2e24:	00000000 	nop
    2e28:	00000000 	nop
    2e2c:	00000000 	nop
    2e30:	00000000 	nop
    2e34:	00000000 	nop
    2e38:	00000000 	nop
    2e3c:	00000000 	nop
    2e40:	00000000 	nop
    2e44:	00000000 	nop
    2e48:	00000000 	nop
    2e4c:	00000000 	nop
    2e50:	00000000 	nop
    2e54:	00000000 	nop
    2e58:	00000000 	nop
    2e5c:	00000000 	nop
    2e60:	00000000 	nop
    2e64:	00000000 	nop
    2e68:	00000000 	nop
    2e6c:	00000000 	nop
    2e70:	00000000 	nop
    2e74:	00000000 	nop
    2e78:	00000000 	nop
    2e7c:	00000000 	nop
    2e80:	00000000 	nop
    2e84:	00000000 	nop
    2e88:	00000000 	nop
    2e8c:	00000000 	nop
    2e90:	00000000 	nop
    2e94:	00000000 	nop
    2e98:	00000000 	nop
    2e9c:	00000000 	nop
    2ea0:	00000000 	nop
    2ea4:	00000000 	nop
    2ea8:	00000000 	nop
    2eac:	00000000 	nop
    2eb0:	00000000 	nop
    2eb4:	00000000 	nop
    2eb8:	00000000 	nop
    2ebc:	00000000 	nop
    2ec0:	00000000 	nop
    2ec4:	00000000 	nop
    2ec8:	00000000 	nop
    2ecc:	00000000 	nop
    2ed0:	00000000 	nop
    2ed4:	00000000 	nop
    2ed8:	00000000 	nop
    2edc:	00000000 	nop
    2ee0:	00000000 	nop
    2ee4:	00000000 	nop
    2ee8:	00000000 	nop
    2eec:	00000000 	nop
    2ef0:	00000000 	nop
    2ef4:	00000000 	nop
    2ef8:	00000000 	nop
    2efc:	00000000 	nop
    2f00:	00000000 	nop
    2f04:	00000000 	nop
    2f08:	00000000 	nop
    2f0c:	00000000 	nop
    2f10:	00000000 	nop
    2f14:	00000000 	nop
    2f18:	00000000 	nop
    2f1c:	00000000 	nop
    2f20:	00000000 	nop
    2f24:	00000000 	nop
    2f28:	00000000 	nop
    2f2c:	00000000 	nop
    2f30:	00000000 	nop
    2f34:	00000000 	nop
    2f38:	00000000 	nop
    2f3c:	00000000 	nop
    2f40:	00000000 	nop
    2f44:	00000000 	nop
    2f48:	00000000 	nop
    2f4c:	00000000 	nop
    2f50:	00000000 	nop
    2f54:	00000000 	nop
    2f58:	00000000 	nop
    2f5c:	00000000 	nop
    2f60:	00000000 	nop
    2f64:	00000000 	nop
    2f68:	00000000 	nop
    2f6c:	00000000 	nop
    2f70:	00000000 	nop
    2f74:	00000000 	nop
    2f78:	00000000 	nop
    2f7c:	00000000 	nop
    2f80:	00000000 	nop
    2f84:	00000000 	nop
    2f88:	00000000 	nop
    2f8c:	00000000 	nop
    2f90:	00000000 	nop
    2f94:	00000000 	nop
    2f98:	00000000 	nop
    2f9c:	00000000 	nop
    2fa0:	00000000 	nop
    2fa4:	00000000 	nop
    2fa8:	00000000 	nop
    2fac:	00000000 	nop
    2fb0:	00000000 	nop
    2fb4:	00000000 	nop
    2fb8:	00000000 	nop
    2fbc:	00000000 	nop
    2fc0:	00000000 	nop
    2fc4:	00000000 	nop
    2fc8:	00000000 	nop
    2fcc:	00000000 	nop
    2fd0:	00000000 	nop
    2fd4:	00000000 	nop
    2fd8:	00000000 	nop
    2fdc:	00000000 	nop
    2fe0:	00000000 	nop
    2fe4:	00000000 	nop
    2fe8:	00000000 	nop
    2fec:	00000000 	nop
    2ff0:	00000000 	nop
    2ff4:	00000000 	nop
    2ff8:	00000000 	nop
    2ffc:	00000000 	nop
    3000:	00000000 	nop
    3004:	00000000 	nop
    3008:	00000000 	nop
    300c:	00000000 	nop
    3010:	00000000 	nop
    3014:	00000000 	nop
    3018:	00000000 	nop
    301c:	00000000 	nop
    3020:	00000000 	nop
    3024:	00000000 	nop
    3028:	00000000 	nop
    302c:	00000000 	nop
    3030:	00000000 	nop
    3034:	00000000 	nop
    3038:	00000000 	nop
    303c:	00000000 	nop
    3040:	00000000 	nop
    3044:	00000000 	nop
    3048:	00000000 	nop
    304c:	00000000 	nop
    3050:	00000000 	nop
    3054:	00000000 	nop
    3058:	00000000 	nop
    305c:	00000000 	nop
    3060:	00000000 	nop
    3064:	00000000 	nop
    3068:	00000000 	nop
    306c:	00000000 	nop
    3070:	00000000 	nop
    3074:	00000000 	nop
    3078:	00000000 	nop
    307c:	00000000 	nop
    3080:	00000000 	nop
    3084:	00000000 	nop
    3088:	00000000 	nop
    308c:	00000000 	nop
    3090:	00000000 	nop
    3094:	00000000 	nop
    3098:	00000000 	nop
    309c:	00000000 	nop
    30a0:	00000000 	nop
    30a4:	00000000 	nop
    30a8:	00000000 	nop
    30ac:	00000000 	nop
    30b0:	00000000 	nop
    30b4:	00000000 	nop
    30b8:	00000000 	nop
    30bc:	00000000 	nop
    30c0:	00000000 	nop
    30c4:	00000000 	nop
    30c8:	00000000 	nop
    30cc:	00000000 	nop
    30d0:	00000000 	nop
    30d4:	00000000 	nop
    30d8:	00000000 	nop
    30dc:	00000000 	nop
    30e0:	00000000 	nop
    30e4:	00000000 	nop
    30e8:	00000000 	nop
    30ec:	00000000 	nop
    30f0:	00000000 	nop
    30f4:	00000000 	nop
    30f8:	00000000 	nop
    30fc:	00000000 	nop
    3100:	00000000 	nop
    3104:	00000000 	nop
    3108:	00000000 	nop
    310c:	00000000 	nop
    3110:	00000000 	nop
    3114:	00000000 	nop
    3118:	00000000 	nop
    311c:	00000000 	nop
    3120:	00000000 	nop
    3124:	00000000 	nop
    3128:	00000000 	nop
    312c:	00000000 	nop
    3130:	00000000 	nop
    3134:	00000000 	nop
    3138:	00000000 	nop
    313c:	00000000 	nop
    3140:	00000000 	nop
    3144:	00000000 	nop
    3148:	00000000 	nop
    314c:	00000000 	nop
    3150:	00000000 	nop
    3154:	00000000 	nop
    3158:	00000000 	nop
    315c:	00000000 	nop
    3160:	00000000 	nop
    3164:	00000000 	nop
    3168:	00000000 	nop
    316c:	00000000 	nop
    3170:	00000000 	nop
    3174:	00000000 	nop
    3178:	00000000 	nop
    317c:	00000000 	nop
    3180:	00000000 	nop
    3184:	00000000 	nop
    3188:	00000000 	nop
    318c:	00000000 	nop
    3190:	00000000 	nop
    3194:	00000000 	nop
    3198:	00000000 	nop
    319c:	00000000 	nop
    31a0:	00000000 	nop
    31a4:	00000000 	nop
    31a8:	00000000 	nop
    31ac:	00000000 	nop
    31b0:	00000000 	nop
    31b4:	00000000 	nop
    31b8:	00000000 	nop
    31bc:	00000000 	nop
    31c0:	00000000 	nop
    31c4:	00000000 	nop
    31c8:	00000000 	nop
    31cc:	00000000 	nop
    31d0:	00000000 	nop
    31d4:	00000000 	nop
    31d8:	00000000 	nop
    31dc:	00000000 	nop
    31e0:	00000000 	nop
    31e4:	00000000 	nop
    31e8:	00000000 	nop
    31ec:	00000000 	nop
    31f0:	00000000 	nop
    31f4:	00000000 	nop
    31f8:	00000000 	nop
    31fc:	00000000 	nop
    3200:	00000000 	nop
    3204:	00000000 	nop
    3208:	00000000 	nop
    320c:	00000000 	nop
    3210:	00000000 	nop
    3214:	00000000 	nop
    3218:	00000000 	nop
    321c:	00000000 	nop
    3220:	00000000 	nop
    3224:	00000000 	nop
    3228:	00000000 	nop
    322c:	00000000 	nop
    3230:	00000000 	nop
    3234:	00000000 	nop
    3238:	00000000 	nop
    323c:	00000000 	nop
    3240:	00000000 	nop
    3244:	00000000 	nop
    3248:	00000000 	nop
    324c:	00000000 	nop
    3250:	00000000 	nop
    3254:	00000000 	nop
    3258:	00000000 	nop
    325c:	00000000 	nop
    3260:	00000000 	nop
    3264:	00000000 	nop
    3268:	00000000 	nop
    326c:	00000000 	nop
    3270:	00000000 	nop
    3274:	00000000 	nop
    3278:	00000000 	nop
    327c:	00000000 	nop
    3280:	00000000 	nop
    3284:	00000000 	nop
    3288:	00000000 	nop
    328c:	00000000 	nop
    3290:	00000000 	nop
    3294:	00000000 	nop
    3298:	00000000 	nop
    329c:	00000000 	nop
    32a0:	00000000 	nop
    32a4:	00000000 	nop
    32a8:	00000000 	nop
    32ac:	00000000 	nop
    32b0:	00000000 	nop
    32b4:	00000000 	nop
    32b8:	00000000 	nop
    32bc:	00000000 	nop
    32c0:	00000000 	nop
    32c4:	00000000 	nop
    32c8:	00000000 	nop
    32cc:	00000000 	nop
    32d0:	00000000 	nop
    32d4:	00000000 	nop
    32d8:	00000000 	nop
    32dc:	00000000 	nop
    32e0:	00000000 	nop
    32e4:	00000000 	nop
    32e8:	00000000 	nop
    32ec:	00000000 	nop
    32f0:	00000000 	nop
    32f4:	00000000 	nop
    32f8:	00000000 	nop
    32fc:	00000000 	nop
    3300:	00000000 	nop
    3304:	00000000 	nop
    3308:	00000000 	nop
    330c:	00000000 	nop
    3310:	00000000 	nop
    3314:	00000000 	nop
    3318:	00000000 	nop
    331c:	00000000 	nop
    3320:	00000000 	nop
    3324:	00000000 	nop
    3328:	00000000 	nop
    332c:	00000000 	nop
    3330:	00000000 	nop
    3334:	00000000 	nop
    3338:	00000000 	nop
    333c:	00000000 	nop
    3340:	00000000 	nop
    3344:	00000000 	nop
    3348:	00000000 	nop
    334c:	00000000 	nop
    3350:	00000000 	nop
    3354:	00000000 	nop
    3358:	00000000 	nop
    335c:	00000000 	nop
    3360:	00000000 	nop
    3364:	00000000 	nop
    3368:	00000000 	nop
    336c:	00000000 	nop
    3370:	00000000 	nop
    3374:	00000000 	nop
    3378:	00000000 	nop
    337c:	00000000 	nop
    3380:	00000000 	nop
    3384:	00000000 	nop
    3388:	00000000 	nop
    338c:	00000000 	nop
    3390:	00000000 	nop
    3394:	00000000 	nop
    3398:	00000000 	nop
    339c:	00000000 	nop
    33a0:	00000000 	nop
    33a4:	00000000 	nop
    33a8:	00000000 	nop
    33ac:	00000000 	nop
    33b0:	00000000 	nop
    33b4:	00000000 	nop
    33b8:	00000000 	nop
    33bc:	00000000 	nop
    33c0:	00000000 	nop
    33c4:	00000000 	nop
    33c8:	00000000 	nop
    33cc:	00000000 	nop
    33d0:	00000000 	nop
    33d4:	00000000 	nop
    33d8:	00000000 	nop
    33dc:	00000000 	nop
    33e0:	00000000 	nop
    33e4:	00000000 	nop
    33e8:	00000000 	nop
    33ec:	00000000 	nop
    33f0:	00000000 	nop
    33f4:	00000000 	nop
    33f8:	00000000 	nop
    33fc:	00000000 	nop
    3400:	00000000 	nop
    3404:	00000000 	nop
    3408:	00000000 	nop
    340c:	00000000 	nop
    3410:	00000000 	nop
    3414:	00000000 	nop
    3418:	00000000 	nop
    341c:	00000000 	nop
    3420:	00000000 	nop
    3424:	00000000 	nop
    3428:	00000000 	nop
    342c:	00000000 	nop
    3430:	00000000 	nop
    3434:	00000000 	nop
    3438:	00000000 	nop
    343c:	00000000 	nop
    3440:	00000000 	nop
    3444:	00000000 	nop
    3448:	00000000 	nop
    344c:	00000000 	nop
    3450:	00000000 	nop
    3454:	00000000 	nop
    3458:	00000000 	nop
    345c:	00000000 	nop
    3460:	00000000 	nop
    3464:	00000000 	nop
    3468:	00000000 	nop
    346c:	00000000 	nop
    3470:	00000000 	nop
    3474:	00000000 	nop
    3478:	00000000 	nop
    347c:	00000000 	nop
    3480:	00000000 	nop
    3484:	00000000 	nop
    3488:	00000000 	nop
    348c:	00000000 	nop
    3490:	00000000 	nop
    3494:	00000000 	nop
    3498:	00000000 	nop
    349c:	00000000 	nop
    34a0:	00000000 	nop
    34a4:	00000000 	nop
    34a8:	00000000 	nop
    34ac:	00000000 	nop
    34b0:	00000000 	nop
    34b4:	00000000 	nop
    34b8:	00000000 	nop
    34bc:	00000000 	nop
    34c0:	00000000 	nop
    34c4:	00000000 	nop
    34c8:	00000000 	nop
    34cc:	00000000 	nop
    34d0:	00000000 	nop
    34d4:	00000000 	nop
    34d8:	00000000 	nop
    34dc:	00000000 	nop
    34e0:	00000000 	nop
    34e4:	00000000 	nop
    34e8:	00000000 	nop
    34ec:	00000000 	nop
    34f0:	00000000 	nop
    34f4:	00000000 	nop
    34f8:	00000000 	nop
    34fc:	00000000 	nop
    3500:	00000000 	nop
    3504:	00000000 	nop
    3508:	00000000 	nop
    350c:	00000000 	nop
    3510:	00000000 	nop
    3514:	00000000 	nop
    3518:	00000000 	nop
    351c:	00000000 	nop
    3520:	00000000 	nop
    3524:	00000000 	nop
    3528:	00000000 	nop
    352c:	00000000 	nop
    3530:	00000000 	nop
    3534:	00000000 	nop
    3538:	00000000 	nop
    353c:	00000000 	nop
    3540:	00000000 	nop
    3544:	00000000 	nop
    3548:	00000000 	nop
    354c:	00000000 	nop
    3550:	00000000 	nop
    3554:	00000000 	nop
    3558:	00000000 	nop
    355c:	00000000 	nop
    3560:	00000000 	nop
    3564:	00000000 	nop
    3568:	00000000 	nop
    356c:	00000000 	nop
    3570:	00000000 	nop
    3574:	00000000 	nop
    3578:	00000000 	nop
    357c:	00000000 	nop
    3580:	00000000 	nop
    3584:	00000000 	nop
    3588:	00000000 	nop
    358c:	00000000 	nop
    3590:	00000000 	nop
    3594:	00000000 	nop
    3598:	00000000 	nop
    359c:	00000000 	nop
    35a0:	00000000 	nop
    35a4:	00000000 	nop
    35a8:	00000000 	nop
    35ac:	00000000 	nop
    35b0:	00000000 	nop
    35b4:	00000000 	nop
    35b8:	00000000 	nop
    35bc:	00000000 	nop
    35c0:	00000000 	nop
    35c4:	00000000 	nop
    35c8:	00000000 	nop
    35cc:	00000000 	nop
    35d0:	00000000 	nop
    35d4:	00000000 	nop
    35d8:	00000000 	nop
    35dc:	00000000 	nop
    35e0:	00000000 	nop
    35e4:	00000000 	nop
    35e8:	00000000 	nop
    35ec:	00000000 	nop
    35f0:	00000000 	nop
    35f4:	00000000 	nop
    35f8:	00000000 	nop
    35fc:	00000000 	nop
    3600:	00000000 	nop
    3604:	00000000 	nop
    3608:	00000000 	nop
    360c:	00000000 	nop
    3610:	00000000 	nop
    3614:	00000000 	nop
    3618:	00000000 	nop
    361c:	00000000 	nop
    3620:	00000000 	nop
    3624:	00000000 	nop
    3628:	00000000 	nop
    362c:	00000000 	nop
    3630:	00000000 	nop
    3634:	00000000 	nop
    3638:	00000000 	nop
    363c:	00000000 	nop
    3640:	00000000 	nop
    3644:	00000000 	nop
    3648:	00000000 	nop
    364c:	00000000 	nop
    3650:	00000000 	nop
    3654:	00000000 	nop
    3658:	00000000 	nop
    365c:	00000000 	nop
    3660:	00000000 	nop
    3664:	00000000 	nop
    3668:	00000000 	nop
    366c:	00000000 	nop
    3670:	00000000 	nop
    3674:	00000000 	nop
    3678:	00000000 	nop
    367c:	00000000 	nop
    3680:	00000000 	nop
    3684:	00000000 	nop
    3688:	00000000 	nop
    368c:	00000000 	nop
    3690:	00000000 	nop
    3694:	00000000 	nop
    3698:	00000000 	nop
    369c:	00000000 	nop
    36a0:	00000000 	nop
    36a4:	00000000 	nop
    36a8:	00000000 	nop
    36ac:	00000000 	nop
    36b0:	00000000 	nop
    36b4:	00000000 	nop
    36b8:	00000000 	nop
    36bc:	00000000 	nop
    36c0:	00000000 	nop
    36c4:	00000000 	nop
    36c8:	00000000 	nop
    36cc:	00000000 	nop
    36d0:	00000000 	nop
    36d4:	00000000 	nop
    36d8:	00000000 	nop
    36dc:	00000000 	nop
    36e0:	00000000 	nop
    36e4:	00000000 	nop
    36e8:	00000000 	nop
    36ec:	00000000 	nop
    36f0:	00000000 	nop
    36f4:	00000000 	nop
    36f8:	00000000 	nop
    36fc:	00000000 	nop
    3700:	00000000 	nop
    3704:	00000000 	nop
    3708:	00000000 	nop
    370c:	00000000 	nop
    3710:	00000000 	nop
    3714:	00000000 	nop
    3718:	00000000 	nop
    371c:	00000000 	nop
    3720:	00000000 	nop
    3724:	00000000 	nop
    3728:	00000000 	nop
    372c:	00000000 	nop
    3730:	00000000 	nop
    3734:	00000000 	nop
    3738:	00000000 	nop
    373c:	00000000 	nop
    3740:	00000000 	nop
    3744:	00000000 	nop
    3748:	00000000 	nop
    374c:	00000000 	nop
    3750:	00000000 	nop
    3754:	00000000 	nop
    3758:	00000000 	nop
    375c:	00000000 	nop
    3760:	00000000 	nop
    3764:	00000000 	nop
    3768:	00000000 	nop
    376c:	00000000 	nop
    3770:	00000000 	nop
    3774:	00000000 	nop
    3778:	00000000 	nop
    377c:	00000000 	nop
    3780:	00000000 	nop
    3784:	00000000 	nop
    3788:	00000000 	nop
    378c:	00000000 	nop
    3790:	00000000 	nop
    3794:	00000000 	nop
    3798:	00000000 	nop
    379c:	00000000 	nop
    37a0:	00000000 	nop
    37a4:	00000000 	nop
    37a8:	00000000 	nop
    37ac:	00000000 	nop
    37b0:	00000000 	nop
    37b4:	00000000 	nop
    37b8:	00000000 	nop
    37bc:	00000000 	nop
    37c0:	00000000 	nop
    37c4:	00000000 	nop
    37c8:	00000000 	nop
    37cc:	00000000 	nop
    37d0:	00000000 	nop
    37d4:	00000000 	nop
    37d8:	00000000 	nop
    37dc:	00000000 	nop
    37e0:	00000000 	nop
    37e4:	00000000 	nop
    37e8:	00000000 	nop
    37ec:	00000000 	nop
    37f0:	00000000 	nop
    37f4:	00000000 	nop
    37f8:	00000000 	nop
    37fc:	00000000 	nop
    3800:	00000000 	nop
    3804:	00000000 	nop
    3808:	00000000 	nop
    380c:	00000000 	nop
    3810:	00000000 	nop
    3814:	00000000 	nop
    3818:	00000000 	nop
    381c:	00000000 	nop
    3820:	00000000 	nop
    3824:	00000000 	nop
    3828:	00000000 	nop
    382c:	00000000 	nop
    3830:	00000000 	nop
    3834:	00000000 	nop
    3838:	00000000 	nop
    383c:	00000000 	nop
    3840:	00000000 	nop
    3844:	00000000 	nop
    3848:	00000000 	nop
    384c:	00000000 	nop
    3850:	00000000 	nop
    3854:	00000000 	nop
    3858:	00000000 	nop
    385c:	00000000 	nop
    3860:	00000000 	nop
    3864:	00000000 	nop
    3868:	00000000 	nop
    386c:	00000000 	nop
    3870:	00000000 	nop
    3874:	00000000 	nop
    3878:	00000000 	nop
    387c:	00000000 	nop
    3880:	00000000 	nop
    3884:	00000000 	nop
    3888:	00000000 	nop
    388c:	00000000 	nop
    3890:	00000000 	nop
    3894:	00000000 	nop
    3898:	00000000 	nop
    389c:	00000000 	nop
    38a0:	00000000 	nop
    38a4:	00000000 	nop
    38a8:	00000000 	nop
    38ac:	00000000 	nop
    38b0:	00000000 	nop
    38b4:	00000000 	nop
    38b8:	00000000 	nop
